ARM GAS  /tmp/cc9IUS8A.s 			page 1


   1              		.syntax unified
   2              		.cpu cortex-m3
   3              		.fpu softvfp
   4              		.eabi_attribute 20, 1
   5              		.eabi_attribute 21, 1
   6              		.eabi_attribute 23, 3
   7              		.eabi_attribute 24, 1
   8              		.eabi_attribute 25, 1
   9              		.eabi_attribute 26, 1
  10              		.eabi_attribute 30, 1
  11              		.eabi_attribute 34, 1
  12              		.eabi_attribute 18, 4
  13              		.thumb
  14              		.syntax unified
  15              		.file	"main.c"
  16              		.text
  17              	.Ltext0:
  18              		.cfi_sections	.debug_frame
  19              		.section	.text.MX_GPIO_Init,"ax",%progbits
  20              		.align	2
  21              		.thumb
  22              		.thumb_func
  24              	MX_GPIO_Init:
  25              	.LFB80:
  26              		.file 1 "Src/main.c"
   1:Src/main.c    **** 
   2:Src/main.c    **** /**
   3:Src/main.c    ****   ******************************************************************************
   4:Src/main.c    ****   * @file           : main.c
   5:Src/main.c    ****   * @brief          : Main program body
   6:Src/main.c    ****   ******************************************************************************
   7:Src/main.c    ****   * This notice applies to any and all portions of this file
   8:Src/main.c    ****   * that are not between comment pairs USER CODE BEGIN and
   9:Src/main.c    ****   * USER CODE END. Other portions of this file, whether 
  10:Src/main.c    ****   * inserted by the user or by software development tools
  11:Src/main.c    ****   * are owned by their respective copyright owners.
  12:Src/main.c    ****   *
  13:Src/main.c    ****   * Copyright (c) 2020 STMicroelectronics International N.V. 
  14:Src/main.c    ****   * All rights reserved.
  15:Src/main.c    ****   *
  16:Src/main.c    ****   * Redistribution and use in source and binary forms, with or without 
  17:Src/main.c    ****   * modification, are permitted, provided that the following conditions are met:
  18:Src/main.c    ****   *
  19:Src/main.c    ****   * 1. Redistribution of source code must retain the above copyright notice, 
  20:Src/main.c    ****   *    this list of conditions and the following disclaimer.
  21:Src/main.c    ****   * 2. Redistributions in binary form must reproduce the above copyright notice,
  22:Src/main.c    ****   *    this list of conditions and the following disclaimer in the documentation
  23:Src/main.c    ****   *    and/or other materials provided with the distribution.
  24:Src/main.c    ****   * 3. Neither the name of STMicroelectronics nor the names of other 
  25:Src/main.c    ****   *    contributors to this software may be used to endorse or promote products 
  26:Src/main.c    ****   *    derived from this software without specific written permission.
  27:Src/main.c    ****   * 4. This software, including modifications and/or derivative works of this 
  28:Src/main.c    ****   *    software, must execute solely and exclusively on microcontroller or
  29:Src/main.c    ****   *    microprocessor devices manufactured by or for STMicroelectronics.
  30:Src/main.c    ****   * 5. Redistribution and use of this software other than as permitted under 
  31:Src/main.c    ****   *    this license is void and will automatically terminate your rights under 
  32:Src/main.c    ****   *    this license. 
ARM GAS  /tmp/cc9IUS8A.s 			page 2


  33:Src/main.c    ****   *
  34:Src/main.c    ****   * THIS SOFTWARE IS PROVIDED BY STMICROELECTRONICS AND CONTRIBUTORS "AS IS" 
  35:Src/main.c    ****   * AND ANY EXPRESS, IMPLIED OR STATUTORY WARRANTIES, INCLUDING, BUT NOT 
  36:Src/main.c    ****   * LIMITED TO, THE IMPLIED WARRANTIES OF MERCHANTABILITY, FITNESS FOR A 
  37:Src/main.c    ****   * PARTICULAR PURPOSE AND NON-INFRINGEMENT OF THIRD PARTY INTELLECTUAL PROPERTY
  38:Src/main.c    ****   * RIGHTS ARE DISCLAIMED TO THE FULLEST EXTENT PERMITTED BY LAW. IN NO EVENT 
  39:Src/main.c    ****   * SHALL STMICROELECTRONICS OR CONTRIBUTORS BE LIABLE FOR ANY DIRECT, INDIRECT,
  40:Src/main.c    ****   * INCIDENTAL, SPECIAL, EXEMPLARY, OR CONSEQUENTIAL DAMAGES (INCLUDING, BUT NOT
  41:Src/main.c    ****   * LIMITED TO, PROCUREMENT OF SUBSTITUTE GOODS OR SERVICES; LOSS OF USE, DATA, 
  42:Src/main.c    ****   * OR PROFITS; OR BUSINESS INTERRUPTION) HOWEVER CAUSED AND ON ANY THEORY OF 
  43:Src/main.c    ****   * LIABILITY, WHETHER IN CONTRACT, STRICT LIABILITY, OR TORT (INCLUDING 
  44:Src/main.c    ****   * NEGLIGENCE OR OTHERWISE) ARISING IN ANY WAY OUT OF THE USE OF THIS SOFTWARE,
  45:Src/main.c    ****   * EVEN IF ADVISED OF THE POSSIBILITY OF SUCH DAMAGE.
  46:Src/main.c    ****   *
  47:Src/main.c    ****   ******************************************************************************
  48:Src/main.c    ****   */
  49:Src/main.c    **** /* Includes ------------------------------------------------------------------*/
  50:Src/main.c    **** #include "main.h"
  51:Src/main.c    **** #include "stm32f1xx_hal.h"
  52:Src/main.c    **** #include "cmsis_os.h"
  53:Src/main.c    **** #include <stdio.h>
  54:Src/main.c    **** #include "arm_etm.h"
  55:Src/main.c    **** 
  56:Src/main.c    **** /* USER CODE BEGIN Includes */
  57:Src/main.c    **** 
  58:Src/main.c    **** /* USER CODE END Includes */
  59:Src/main.c    **** 
  60:Src/main.c    **** /* Private variables ---------------------------------------------------------*/
  61:Src/main.c    **** CAN_HandleTypeDef hcan;
  62:Src/main.c    **** 
  63:Src/main.c    **** TIM_HandleTypeDef htim3;
  64:Src/main.c    **** 
  65:Src/main.c    **** UART_HandleTypeDef huart1;
  66:Src/main.c    **** UART_HandleTypeDef huart2;
  67:Src/main.c    **** 
  68:Src/main.c    **** osThreadId Task0Handle;
  69:Src/main.c    **** osThreadId Task1Handle;
  70:Src/main.c    **** 
  71:Src/main.c    **** /* USER CODE BEGIN PV */
  72:Src/main.c    **** /* Private variables ---------------------------------------------------------*/
  73:Src/main.c    **** CAN_FilterConfTypeDef  sFliterConfig;
  74:Src/main.c    **** CanTxMsgTypeDef TxMessage;
  75:Src/main.c    **** CanRxMsgTypeDef RxMessage;
  76:Src/main.c    **** int TickCounter = 0;
  77:Src/main.c    **** 
  78:Src/main.c    **** int sensor_flag1 = 0;
  79:Src/main.c    **** int sensor_flag2 = 0;
  80:Src/main.c    **** int sensor_flag3 = 0;
  81:Src/main.c    **** 
  82:Src/main.c    **** 
  83:Src/main.c    **** int flag;
  84:Src/main.c    **** 
  85:Src/main.c    **** int globalCounter = 0;
  86:Src/main.c    **** 
  87:Src/main.c    **** int setupCounter = 0;
  88:Src/main.c    **** /* USER CODE END PV */
  89:Src/main.c    **** 
ARM GAS  /tmp/cc9IUS8A.s 			page 3


  90:Src/main.c    **** /* Private function prototypes -----------------------------------------------*/
  91:Src/main.c    **** void SystemClock_Config(void);
  92:Src/main.c    **** static void MX_GPIO_Init(void);
  93:Src/main.c    **** static void MX_CAN_Init(void);
  94:Src/main.c    **** static void MX_USART1_UART_Init(void);
  95:Src/main.c    **** static void MX_USART2_UART_Init(void);
  96:Src/main.c    **** static void MX_TIM3_Init(void);
  97:Src/main.c    **** void Func_Task0(void const * argument);
  98:Src/main.c    **** void Func_Task1(void const * argument);
  99:Src/main.c    ****                                     
 100:Src/main.c    **** void HAL_TIM_MspPostInit(TIM_HandleTypeDef *htim);
 101:Src/main.c    **** 
 102:Src/main.c    **** void Setup_Icing(int Icing_value);    // ÁªìÂÜ∞Âè™Ë∞ÉPWM
 103:Src/main.c    **** void Setup_Visibility(int visibility_value);    // ËÉΩËßÅÂ∫¶Ë∞ÉPWMÂíåLED
 104:Src/main.c    **** void Setup_Rainfall(int Rainfall_value);    // ÈôçÈõ®ÈáèÂè™Ë∞ÉPWM
 105:Src/main.c    **** void Setup_Light(int Light_value);    // ÂÖâÁÖßÂº∫Â∫¶Âè™Ë∞ÉLED
 106:Src/main.c    **** void Setup_Flow_Speed(int Flow_value, int speed_value);    // ËΩ¶ÊµÅÂíåËΩ¶ÊµÅÈÄüÂ∫¶Âè™Ë∞ÉPWM
 107:Src/main.c    **** 
 108:Src/main.c    **** /* USER CODE BEGIN PFP */
 109:Src/main.c    **** /* Private function prototypes -----------------------------------------------*/
 110:Src/main.c    **** 
 111:Src/main.c    **** /* USER CODE END PFP */
 112:Src/main.c    **** 
 113:Src/main.c    **** /* USER CODE BEGIN 0 */
 114:Src/main.c    **** void configure_tracing()
 115:Src/main.c    **** {
 116:Src/main.c    ****     /* STM32 specific configuration to enable the TRACESWO IO pin */
 117:Src/main.c    ****     RCC->APB2ENR |= RCC_APB2ENR_AFIOEN;
 118:Src/main.c    ****     AFIO->MAPR |= (2 << 24); // Disable JTAG to release TRACESWO
 119:Src/main.c    ****     DBGMCU->CR |= DBGMCU_CR_TRACE_IOEN; // Enable IO trace pins 
 120:Src/main.c    ****     
 121:Src/main.c    ****     uint32_t DBGMCU_val = DBGMCU->CR; 
 122:Src/main.c    ****     // DBGMCU->CR |= 0x00000020; 
 123:Src/main.c    ****    
 124:Src/main.c    ****     if (!(DBGMCU->CR & DBGMCU_CR_TRACE_IOEN))
 125:Src/main.c    ****     {
 126:Src/main.c    ****         // Some (all?) STM32s don't allow writes to DBGMCU register until
 127:Src/main.c    ****         // C_DEBUGEN in CoreDebug->DHCSR is set. This cannot be set by the
 128:Src/main.c    ****         // CPU itself, so in practice you need to connect to the CPU with
 129:Src/main.c    ****         // a debugger once before resetting it.
 130:Src/main.c    ****         return;
 131:Src/main.c    ****     }
 132:Src/main.c    ****     
 133:Src/main.c    ****     /* Configure Trace Port Interface Unit */
 134:Src/main.c    ****     CoreDebug->DEMCR |= CoreDebug_DEMCR_TRCENA_Msk; // Enable access to registers
 135:Src/main.c    ****     TPI->ACPR = 8; // Trace clock = HCLK/(x+1) = 8MHz    ËøôÈáåHCLKÊòØÂ§ÑÁêÜÂô®Êó∂Èíü,Ëøô‰∏™ÂÄºÁöÑÂ
 136:Src/main.c    ****     TPI->SPPR = 2; // Pin protocol = NRZ/USART
 137:Src/main.c    ****     
 138:Src/main.c    ****     // TPI->FFCR = 0x102;
 139:Src/main.c    ****     TPI->FFCR = 0x100; //‰∏∫‰ªÄ‰πàËÆæÁΩÆ102ÂºÄÂêØETMÂêéÔºåITMËæìÂá∫Â∞±‰∏çÂØπ‰∫ÜÔºüÔºü,Âú®ÂçöÂÆ¢http
 140:Src/main.c    ****     		       // TPIU packet framing enabled when bit 2 is set.
 141:Src/main.c    ****     		       // You can use 0x102 if you need both DWT/ITM and ETM.
 142:Src/main.c    ****                        // You can use 0x100 if you only need DWT/ITM and not ETM.
 143:Src/main.c    ****    
 144:Src/main.c    ****     /* Configure PC sampling and exception trace  */
 145:Src/main.c    ****     DWT->CTRL = (1 << DWT_CTRL_CYCTAP_Pos) // Prescaler for PC sampling
 146:Src/main.c    ****                                            // 0 = x32, 1 = x512  //
ARM GAS  /tmp/cc9IUS8A.s 			page 4


 147:Src/main.c    ****                     //bits[6]Â∞±ÊòØDWT_CYCCNTÂØÑÂ≠òÂô®ÁöÑ0Âà∞5bitÔºåÈÇ£‰πàËäÇÊãçÂ∞±ÊòØ32ËÆ∞ÂΩï‰∏ÄÊ¨
 148:Src/main.c    ****               | (0 << DWT_CTRL_POSTPRESET_Pos) // Postscaler for PC sampling
 149:Src/main.c    ****                                                 // Divider = value + 1
 150:Src/main.c    ****               | (1 << DWT_CTRL_PCSAMPLENA_Pos) // Enable PC sampling
 151:Src/main.c    ****               | (2 << DWT_CTRL_SYNCTAP_Pos)    // Sync packet interval
 152:Src/main.c    ****                                                // 0 = Off, 1 = Every 2^23 cycles,
 153:Src/main.c    ****                                                // 2 = Every 2^25, 3 = Every 2^27
 154:Src/main.c    ****               | (1 << DWT_CTRL_EXCTRCENA_Pos)  // Enable exception trace
 155:Src/main.c    ****               | (1 << DWT_CTRL_CYCCNTENA_Pos); // Enable cycle counter
 156:Src/main.c    ****     
 157:Src/main.c    ****     /* Configure instrumentation trace macroblock */
 158:Src/main.c    ****     ITM->LAR = 0xC5ACCE55;
 159:Src/main.c    ****     ITM->TCR = (1 << ITM_TCR_TraceBusID_Pos)  // Trace bus ID for TPIU
 160:Src/main.c    ****              | (1 << ITM_TCR_DWTENA_Pos)      // Enable events from DWT
 161:Src/main.c    ****              | (1 << ITM_TCR_SYNCENA_Pos)     // Enable sync packets
 162:Src/main.c    ****              | (1 << ITM_TCR_ITMENA_Pos)      // Main enable for ITM
 163:Src/main.c    ****              | (1 << ITM_TCR_TSENA_Pos)       // ‰ΩøËÉΩITMÊó∂Èó¥Êà≥
 164:Src/main.c    ****              | (0 << ITM_TCR_TSPrescale_Pos); // ÂÖà‰∏çËÆæÁΩÆÊó∂Èó¥Êà≥ÂàÜÈ¢ëÁ≥ªÊï∞,00:‰∏çÂàÜÈ¢ëÔºå0
 165:Src/main.c    ****     ITM->TER = 0xFFFFFFFF; // Enable all stimulus ports
 166:Src/main.c    **** 
 167:Src/main.c    **** 
 168:Src/main.c    ****     //ETM_Lock_Access = 0xC5ACCE55;
 169:Src/main.c    ****     //ETM_Control = 0x00001D1E;
 170:Src/main.c    ****     //ETM_Trigger_Event = 0x0000406F;
 171:Src/main.c    ****     //ETM_Trace_Enable_Event = 0x0000006F;
 172:Src/main.c    ****     //ETM_Trace_Start_Stop = 0x00000001;
 173:Src/main.c    **** 
 174:Src/main.c    **** 
 175:Src/main.c    ****    /* Configure embedded trace macroblock */
 176:Src/main.c    ****     ETM->LAR = 0xC5ACCE55;
 177:Src/main.c    ****     ETM_SetupMode();
 178:Src/main.c    ****     ETM->CR = ETM_CR_ETMEN // Enable ETM output port
 179:Src/main.c    ****             | ETM_CR_STALL_PROCESSOR // Stall processor when fifo is full
 180:Src/main.c    ****             | ETM_CR_BRANCH_OUTPUT // Report all branches
 181:Src/main.c    ****             | (1 << 4);//port_size‰Ωç21,6,5,4ÊòØ0001Ë°®Á§∫8bitÔºåËøôÈáåÁõÆÂâçËÆ§‰∏∫Â§ç‰ΩçÂÄºÈÉΩÊòØ0
 182:Src/main.c    ****     ETM->TRACEIDR = 2; // Trace bus ID for TPIU
 183:Src/main.c    ****     ETM->TECR1 = ETM_TECR1_EXCLUDE; // Trace always enabled
 184:Src/main.c    ****     ETM->FFRR = ETM_FFRR_EXCLUDE; // Stalling always enabled
 185:Src/main.c    ****     ETM->FFLR = 24; // Stall when less than N bytes free in FIFO (range 1..24)
 186:Src/main.c    ****                     // Larger values mean less latency in trace, but more stalls.
 187:Src/main.c    ****     // Note: we do not enable ETM trace yet, only for specific parts of code.
 188:Src/main.c    ****     
 189:Src/main.c    ****     ETM->TRIGGER = 0x0000406F;
 190:Src/main.c    ****     ETM->TEEVR = 0x0000006F;
 191:Src/main.c    ****     //ETM->TSSCR = 0x00000001;
 192:Src/main.c    **** 
 193:Src/main.c    **** }
 194:Src/main.c    **** 
 195:Src/main.c    **** void configure_watchpoint()
 196:Src/main.c    **** {
 197:Src/main.c    ****     /* This is an example of how to configure DWT to monitor a watchpoint.
 198:Src/main.c    ****        The data value is reported when the watchpoint is hit. */
 199:Src/main.c    ****     
 200:Src/main.c    ****     /* Monitor all accesses to GPIOC (range length 32 bytes) */
 201:Src/main.c    ****     //DWT->COMP0 = (uint32_t)bubble_sort;                      //Êîπ‰∏∫‰∫ÜÊØîGPIOC
 202:Src/main.c    ****     DWT->COMP0 = (uint32_t)C_GPIO_GPIO_Port;                      //Êîπ‰∏∫‰∫ÜÊØîËæÉGPIOC
 203:Src/main.c    ****     DWT->MASK0 = 8;							 //Â±èËîΩÊéâÊï∞ÊçÆÂú∞ÂùÄÁöÑÂêé5‰ΩçÔºåÁõÆÂâçDWT->COMP0ÁöÑÂÄºÊòØGPIOAÁöÑÂú∞
ARM GAS  /tmp/cc9IUS8A.s 			page 5


 204:Src/main.c    **** 											//ÂèØËÉΩÊòØÂá∫‰∫éÂä†Âø´ÊØîËæÉÈÄüÂ∫¶ÁöÑÂéüÂõ†ÂêßÔºåÈÇ£‰∏∫‰ªÄ‰πà‰∏çÊääMASK[3:0]
 205:Src/main.c    **** 										        //ËÆæÁΩÆ‰∏∫8,ÂèçÊ≠£0x40010800ÊúÄÂêéÂÖ´‰ΩçÈÉΩÊòØ0
 206:Src/main.c    **** 										        
 207:Src/main.c    ****     DWT->FUNCTION0 = (2 << DWT_FUNCTION_FUNCTION_Pos)   // Report data and addr on watchpoint hit
 208:Src/main.c    ****                    | (1 << DWT_FUNCTION_EMITRANGE_Pos); // Ëøô‰∏Ä‰Ωç‰∏∫1ÔºåÂâçÈù¢ÈÇ£Âõõ‰ΩçÊòØ0010Ë°
 209:Src/main.c    ****                    
 210:Src/main.c    ****                  //    (4 << DWT_FUNCTION_FUNCTION_Pos)
 211:Src/main.c    ****                  //  | (1 << DWT_FUNCTION_CYCMATCH_Pos); // Ëøô‰∏Ä‰Ωç‰∏∫1,ÂâçÈù¢ÈÇ£Âõõ‰ΩçÊòØ0100,Ë°
 212:Src/main.c    ****     
 213:Src/main.c    ****     /* Monitor all accesses to globalCounter (range length 4 bytes) */
 214:Src/main.c    ****     DWT->COMP1 = (uint32_t)&globalCounter;
 215:Src/main.c    ****     DWT->MASK1 = 2;
 216:Src/main.c    ****     DWT->FUNCTION1 = (3 << DWT_FUNCTION_FUNCTION_Pos); // Report data and PC on watchpoint hit
 217:Src/main.c    **** 
 218:Src/main.c    ****     DWT->COMP2 = (uint32_t)&setupCounter;
 219:Src/main.c    ****     DWT->MASK2 = 2;
 220:Src/main.c    ****     DWT->FUNCTION2 = (3 << DWT_FUNCTION_FUNCTION_Pos); // Report data and PC on watchpoint hit  
 221:Src/main.c    **** }
 222:Src/main.c    **** 
 223:Src/main.c    **** void ITM_Print(int port, const char *p)
 224:Src/main.c    **** {
 225:Src/main.c    ****     globalCounter = 0xFC;
 226:Src/main.c    ****     if ((ITM->TCR & ITM_TCR_ITMENA_Msk) && (ITM->TER & (1UL << port)))
 227:Src/main.c    ****     {
 228:Src/main.c    ****         while (*p)
 229:Src/main.c    ****         {
 230:Src/main.c    ****             while (ITM->PORT[port].u32 == 0);//Êó∂Èó¥Áâá‰∏ãÂ§öËøõÁ®ã‰ΩøÁî®‰∏Ä‰∏™Êü•ËØ¢ÂáΩÊï∞Âú®ËøôÈ
 231:Src/main.c    ****             ITM->PORT[port].u8 = *p++;
 232:Src/main.c    ****         }   
 233:Src/main.c    ****     }
 234:Src/main.c    **** }
 235:Src/main.c    **** 
 236:Src/main.c    **** void ITM_SendValue (int port, uint32_t value)
 237:Src/main.c    **** {
 238:Src/main.c    ****     if ((ITM->TCR & ITM_TCR_ITMENA_Msk) && (ITM->TER & (1UL << port)))
 239:Src/main.c    ****     {
 240:Src/main.c    ****         while (ITM->PORT[port].u32 == 0);
 241:Src/main.c    ****         ITM->PORT[port].u32 = value;
 242:Src/main.c    ****     }
 243:Src/main.c    **** }
 244:Src/main.c    **** 
 245:Src/main.c    **** int _write(int fd, char *ptr, int len)  
 246:Src/main.c    **** {  
 247:Src/main.c    ****   HAL_UART_Transmit(&huart2, (uint8_t*)ptr, len, 0xFFFF);
 248:Src/main.c    ****   return len;
 249:Src/main.c    **** }
 250:Src/main.c    **** /* USER CODE END 0 */
 251:Src/main.c    **** 
 252:Src/main.c    **** /**
 253:Src/main.c    ****   * @brief  The application entry point.
 254:Src/main.c    ****   *
 255:Src/main.c    ****   * @retval None
 256:Src/main.c    ****   */
 257:Src/main.c    **** int main(void)
 258:Src/main.c    **** {
 259:Src/main.c    ****   /* USER CODE BEGIN 1 */
 260:Src/main.c    **** 
ARM GAS  /tmp/cc9IUS8A.s 			page 6


 261:Src/main.c    ****   /* USER CODE END 1 */
 262:Src/main.c    **** 
 263:Src/main.c    ****   /* MCU Configuration----------------------------------------------------------*/
 264:Src/main.c    **** 
 265:Src/main.c    ****   /* Reset of all peripherals, Initializes the Flash interface and the Systick. */
 266:Src/main.c    ****   HAL_Init();
 267:Src/main.c    **** 
 268:Src/main.c    ****   /* USER CODE BEGIN Init */
 269:Src/main.c    **** 
 270:Src/main.c    ****   /* USER CODE END Init */
 271:Src/main.c    **** 
 272:Src/main.c    ****   /* Configure the system clock */
 273:Src/main.c    ****   SystemClock_Config();
 274:Src/main.c    **** 
 275:Src/main.c    ****   /* USER CODE BEGIN SysInit */
 276:Src/main.c    **** 
 277:Src/main.c    ****   /* USER CODE END SysInit */
 278:Src/main.c    **** 
 279:Src/main.c    ****   /* Initialize all configured peripherals */
 280:Src/main.c    ****   MX_GPIO_Init();
 281:Src/main.c    ****   MX_CAN_Init();
 282:Src/main.c    ****   MX_USART1_UART_Init();
 283:Src/main.c    ****   MX_USART2_UART_Init();
 284:Src/main.c    ****   MX_TIM3_Init();
 285:Src/main.c    **** 
 286:Src/main.c    ****   // ËøΩË∏™ÂàùÂßãÂåñ
 287:Src/main.c    ****   configure_tracing();
 288:Src/main.c    ****   configure_watchpoint();
 289:Src/main.c    ****   /* USER CODE BEGIN 2 */
 290:Src/main.c    **** 
 291:Src/main.c    ****   /* USER CODE END 2 */
 292:Src/main.c    **** 
 293:Src/main.c    ****   /* USER CODE BEGIN RTOS_MUTEX */
 294:Src/main.c    ****     /* add mutexes, ... */
 295:Src/main.c    ****   /* USER CODE END RTOS_MUTEX */
 296:Src/main.c    **** 
 297:Src/main.c    ****   /* USER CODE BEGIN RTOS_SEMAPHORES */
 298:Src/main.c    ****     /* add semaphores, ... */
 299:Src/main.c    ****   /* USER CODE END RTOS_SEMAPHORES */
 300:Src/main.c    **** 
 301:Src/main.c    ****   /* USER CODE BEGIN RTOS_TIMERS */
 302:Src/main.c    ****     /* start timers, add new ones, ... */
 303:Src/main.c    ****   /* USER CODE END RTOS_TIMERS */
 304:Src/main.c    **** 
 305:Src/main.c    ****   /* Create the thread(s) */
 306:Src/main.c    ****   /* definition and creation of Task0 */
 307:Src/main.c    ****   osThreadDef(Task0, Func_Task0, osPriorityNormal, 0, 256);
 308:Src/main.c    ****   Task0Handle = osThreadCreate(osThread(Task0), NULL);
 309:Src/main.c    **** 
 310:Src/main.c    ****   /* definition and creation of Task1 */
 311:Src/main.c    ****   osThreadDef(Task1, Func_Task1, osPriorityNormal, 0, 256);
 312:Src/main.c    ****   Task1Handle = osThreadCreate(osThread(Task1), NULL);
 313:Src/main.c    **** 
 314:Src/main.c    ****   /* USER CODE BEGIN RTOS_THREADS */
 315:Src/main.c    ****     /* add threads, ... */
 316:Src/main.c    ****   /* USER CODE END RTOS_THREADS */
 317:Src/main.c    **** 
ARM GAS  /tmp/cc9IUS8A.s 			page 7


 318:Src/main.c    ****   /* USER CODE BEGIN RTOS_QUEUES */
 319:Src/main.c    ****     /* add queues, ... */
 320:Src/main.c    ****   /* USER CODE END RTOS_QUEUES */
 321:Src/main.c    ****  
 322:Src/main.c    **** 
 323:Src/main.c    ****   /* Start scheduler */
 324:Src/main.c    ****   osKernelStart();
 325:Src/main.c    ****   
 326:Src/main.c    ****   /* We should never get here as control is now taken by the scheduler */
 327:Src/main.c    **** 
 328:Src/main.c    ****   /* Infinite loop */
 329:Src/main.c    ****   /* USER CODE BEGIN WHILE */
 330:Src/main.c    ****     while (1)
 331:Src/main.c    ****     {
 332:Src/main.c    **** 
 333:Src/main.c    ****   /* USER CODE END WHILE */
 334:Src/main.c    **** 
 335:Src/main.c    ****   /* USER CODE BEGIN 3 */
 336:Src/main.c    **** 
 337:Src/main.c    ****     }
 338:Src/main.c    ****   /* USER CODE END 3 */
 339:Src/main.c    **** 
 340:Src/main.c    **** }
 341:Src/main.c    **** 
 342:Src/main.c    **** /**
 343:Src/main.c    ****   * @brief System Clock Configuration
 344:Src/main.c    ****   * @retval None
 345:Src/main.c    ****   */
 346:Src/main.c    **** void SystemClock_Config(void)
 347:Src/main.c    **** {
 348:Src/main.c    **** 
 349:Src/main.c    ****   RCC_OscInitTypeDef RCC_OscInitStruct;
 350:Src/main.c    ****   RCC_ClkInitTypeDef RCC_ClkInitStruct;
 351:Src/main.c    **** 
 352:Src/main.c    ****     /**Initializes the CPU, AHB and APB busses clocks 
 353:Src/main.c    ****     */
 354:Src/main.c    ****   RCC_OscInitStruct.OscillatorType = RCC_OSCILLATORTYPE_HSE;
 355:Src/main.c    ****   RCC_OscInitStruct.HSEState = RCC_HSE_ON;
 356:Src/main.c    ****   RCC_OscInitStruct.HSEPredivValue = RCC_HSE_PREDIV_DIV1;
 357:Src/main.c    ****   RCC_OscInitStruct.HSIState = RCC_HSI_ON;
 358:Src/main.c    ****   RCC_OscInitStruct.PLL.PLLState = RCC_PLL_ON;
 359:Src/main.c    ****   RCC_OscInitStruct.PLL.PLLSource = RCC_PLLSOURCE_HSE;
 360:Src/main.c    ****   RCC_OscInitStruct.PLL.PLLMUL = RCC_PLL_MUL9;
 361:Src/main.c    ****   if (HAL_RCC_OscConfig(&RCC_OscInitStruct) != HAL_OK)
 362:Src/main.c    ****   {
 363:Src/main.c    ****     _Error_Handler(__FILE__, __LINE__);
 364:Src/main.c    ****   }
 365:Src/main.c    **** 
 366:Src/main.c    ****     /**Initializes the CPU, AHB and APB busses clocks 
 367:Src/main.c    ****     */
 368:Src/main.c    ****   RCC_ClkInitStruct.ClockType = RCC_CLOCKTYPE_HCLK|RCC_CLOCKTYPE_SYSCLK
 369:Src/main.c    ****                               |RCC_CLOCKTYPE_PCLK1|RCC_CLOCKTYPE_PCLK2;
 370:Src/main.c    ****   RCC_ClkInitStruct.SYSCLKSource = RCC_SYSCLKSOURCE_PLLCLK;
 371:Src/main.c    ****   RCC_ClkInitStruct.AHBCLKDivider = RCC_SYSCLK_DIV1;
 372:Src/main.c    ****   RCC_ClkInitStruct.APB1CLKDivider = RCC_HCLK_DIV2;
 373:Src/main.c    ****   RCC_ClkInitStruct.APB2CLKDivider = RCC_HCLK_DIV1;
 374:Src/main.c    **** 
ARM GAS  /tmp/cc9IUS8A.s 			page 8


 375:Src/main.c    ****   if (HAL_RCC_ClockConfig(&RCC_ClkInitStruct, FLASH_LATENCY_2) != HAL_OK)
 376:Src/main.c    ****   {
 377:Src/main.c    ****     _Error_Handler(__FILE__, __LINE__);
 378:Src/main.c    ****   }
 379:Src/main.c    **** 
 380:Src/main.c    ****     /**Configure the Systick interrupt time 
 381:Src/main.c    ****     */
 382:Src/main.c    ****   HAL_SYSTICK_Config(HAL_RCC_GetHCLKFreq()/1000);
 383:Src/main.c    **** 
 384:Src/main.c    ****     /**Configure the Systick 
 385:Src/main.c    ****     */
 386:Src/main.c    ****   HAL_SYSTICK_CLKSourceConfig(SYSTICK_CLKSOURCE_HCLK);
 387:Src/main.c    **** 
 388:Src/main.c    ****   /* SysTick_IRQn interrupt configuration */
 389:Src/main.c    ****   HAL_NVIC_SetPriority(SysTick_IRQn, 15, 0);
 390:Src/main.c    **** }
 391:Src/main.c    **** 
 392:Src/main.c    **** /* CAN init function */
 393:Src/main.c    **** static void MX_CAN_Init(void)
 394:Src/main.c    **** {
 395:Src/main.c    **** 
 396:Src/main.c    ****   hcan.Instance = CAN1;
 397:Src/main.c    ****   hcan.Init.Prescaler = 18;
 398:Src/main.c    ****   hcan.Init.Mode = CAN_MODE_NORMAL;
 399:Src/main.c    ****   hcan.Init.SJW = CAN_SJW_1TQ;
 400:Src/main.c    ****   hcan.Init.BS1 = CAN_BS1_7TQ;
 401:Src/main.c    ****   hcan.Init.BS2 = CAN_BS2_8TQ;
 402:Src/main.c    ****   hcan.Init.TTCM = DISABLE;
 403:Src/main.c    ****   hcan.Init.ABOM = DISABLE;
 404:Src/main.c    ****   hcan.Init.AWUM = DISABLE;
 405:Src/main.c    ****   hcan.Init.NART = DISABLE;
 406:Src/main.c    ****   hcan.Init.RFLM = DISABLE;
 407:Src/main.c    ****   hcan.Init.TXFP = DISABLE;
 408:Src/main.c    ****   if (HAL_CAN_Init(&hcan) != HAL_OK)
 409:Src/main.c    ****   {
 410:Src/main.c    ****     _Error_Handler(__FILE__, __LINE__);
 411:Src/main.c    ****   }
 412:Src/main.c    **** 
 413:Src/main.c    **** }
 414:Src/main.c    **** 
 415:Src/main.c    **** /* TIM3 init function */
 416:Src/main.c    **** static void MX_TIM3_Init(void)
 417:Src/main.c    **** {
 418:Src/main.c    **** 
 419:Src/main.c    ****   TIM_MasterConfigTypeDef sMasterConfig;
 420:Src/main.c    ****   TIM_OC_InitTypeDef sConfigOC;
 421:Src/main.c    **** 
 422:Src/main.c    ****   htim3.Instance = TIM3;
 423:Src/main.c    ****   htim3.Init.Prescaler = 72-1;
 424:Src/main.c    ****   htim3.Init.CounterMode = TIM_COUNTERMODE_UP;
 425:Src/main.c    ****   htim3.Init.Period = 1000-1;
 426:Src/main.c    ****   htim3.Init.ClockDivision = TIM_CLOCKDIVISION_DIV1;
 427:Src/main.c    ****   htim3.Init.AutoReloadPreload = TIM_AUTORELOAD_PRELOAD_DISABLE;
 428:Src/main.c    ****   if (HAL_TIM_PWM_Init(&htim3) != HAL_OK)
 429:Src/main.c    ****   {
 430:Src/main.c    ****     _Error_Handler(__FILE__, __LINE__);
 431:Src/main.c    ****   }
ARM GAS  /tmp/cc9IUS8A.s 			page 9


 432:Src/main.c    **** 
 433:Src/main.c    ****   sMasterConfig.MasterOutputTrigger = TIM_TRGO_RESET;
 434:Src/main.c    ****   sMasterConfig.MasterSlaveMode = TIM_MASTERSLAVEMODE_DISABLE;
 435:Src/main.c    ****   if (HAL_TIMEx_MasterConfigSynchronization(&htim3, &sMasterConfig) != HAL_OK)
 436:Src/main.c    ****   {
 437:Src/main.c    ****     _Error_Handler(__FILE__, __LINE__);
 438:Src/main.c    ****   }
 439:Src/main.c    **** 
 440:Src/main.c    ****   sConfigOC.OCMode = TIM_OCMODE_PWM1;
 441:Src/main.c    ****   sConfigOC.Pulse = 0;
 442:Src/main.c    ****   sConfigOC.OCPolarity = TIM_OCPOLARITY_LOW;
 443:Src/main.c    ****   sConfigOC.OCFastMode = TIM_OCFAST_DISABLE;
 444:Src/main.c    ****   if (HAL_TIM_PWM_ConfigChannel(&htim3, &sConfigOC, TIM_CHANNEL_2) != HAL_OK)
 445:Src/main.c    ****   {
 446:Src/main.c    ****     _Error_Handler(__FILE__, __LINE__);
 447:Src/main.c    ****   }
 448:Src/main.c    **** 
 449:Src/main.c    ****   HAL_TIM_MspPostInit(&htim3);
 450:Src/main.c    **** 
 451:Src/main.c    **** }
 452:Src/main.c    **** 
 453:Src/main.c    **** /* USART1 init function */
 454:Src/main.c    **** static void MX_USART1_UART_Init(void)
 455:Src/main.c    **** {
 456:Src/main.c    **** 
 457:Src/main.c    ****   huart1.Instance = USART1;
 458:Src/main.c    ****   huart1.Init.BaudRate = 115200;
 459:Src/main.c    ****   huart1.Init.WordLength = UART_WORDLENGTH_8B;
 460:Src/main.c    ****   huart1.Init.StopBits = UART_STOPBITS_1;
 461:Src/main.c    ****   huart1.Init.Parity = UART_PARITY_NONE;
 462:Src/main.c    ****   huart1.Init.Mode = UART_MODE_TX_RX;
 463:Src/main.c    ****   huart1.Init.HwFlowCtl = UART_HWCONTROL_NONE;
 464:Src/main.c    ****   huart1.Init.OverSampling = UART_OVERSAMPLING_16;
 465:Src/main.c    ****   if (HAL_UART_Init(&huart1) != HAL_OK)
 466:Src/main.c    ****   {
 467:Src/main.c    ****     _Error_Handler(__FILE__, __LINE__);
 468:Src/main.c    ****   }
 469:Src/main.c    **** 
 470:Src/main.c    **** }
 471:Src/main.c    **** 
 472:Src/main.c    **** /* USART2 init function */
 473:Src/main.c    **** static void MX_USART2_UART_Init(void)
 474:Src/main.c    **** {
 475:Src/main.c    **** 
 476:Src/main.c    ****   huart2.Instance = USART2;
 477:Src/main.c    ****   huart2.Init.BaudRate = 115200;
 478:Src/main.c    ****   huart2.Init.WordLength = UART_WORDLENGTH_8B;
 479:Src/main.c    ****   huart2.Init.StopBits = UART_STOPBITS_1;
 480:Src/main.c    ****   huart2.Init.Parity = UART_PARITY_NONE;
 481:Src/main.c    ****   huart2.Init.Mode = UART_MODE_TX_RX;
 482:Src/main.c    ****   huart2.Init.HwFlowCtl = UART_HWCONTROL_NONE;
 483:Src/main.c    ****   huart2.Init.OverSampling = UART_OVERSAMPLING_16;
 484:Src/main.c    ****   if (HAL_UART_Init(&huart2) != HAL_OK)
 485:Src/main.c    ****   {
 486:Src/main.c    ****     _Error_Handler(__FILE__, __LINE__);
 487:Src/main.c    ****   }
 488:Src/main.c    **** 
ARM GAS  /tmp/cc9IUS8A.s 			page 10


 489:Src/main.c    **** }
 490:Src/main.c    **** 
 491:Src/main.c    **** /** Configure pins as 
 492:Src/main.c    ****         * Analog 
 493:Src/main.c    ****         * Input 
 494:Src/main.c    ****         * Output
 495:Src/main.c    ****         * EVENT_OUT
 496:Src/main.c    ****         * EXTI
 497:Src/main.c    **** */
 498:Src/main.c    **** static void MX_GPIO_Init(void)
 499:Src/main.c    **** {
  27              		.loc 1 499 0
  28              		.cfi_startproc
  29              		@ args = 0, pretend = 0, frame = 32
  30              		@ frame_needed = 0, uses_anonymous_args = 0
  31 0000 2DE9F041 		push	{r4, r5, r6, r7, r8, lr}
  32              	.LCFI0:
  33              		.cfi_def_cfa_offset 24
  34              		.cfi_offset 4, -24
  35              		.cfi_offset 5, -20
  36              		.cfi_offset 6, -16
  37              		.cfi_offset 7, -12
  38              		.cfi_offset 8, -8
  39              		.cfi_offset 14, -4
  40 0004 88B0     		sub	sp, sp, #32
  41              	.LCFI1:
  42              		.cfi_def_cfa_offset 56
  43              	.LBB2:
 500:Src/main.c    **** 
 501:Src/main.c    ****   GPIO_InitTypeDef GPIO_InitStruct;
 502:Src/main.c    **** 
 503:Src/main.c    ****   /* GPIO Ports Clock Enable */
 504:Src/main.c    ****   __HAL_RCC_GPIOC_CLK_ENABLE();
  44              		.loc 1 504 0
  45 0006 214B     		ldr	r3, .L3
  46 0008 9A69     		ldr	r2, [r3, #24]
  47 000a 42F01002 		orr	r2, r2, #16
  48 000e 9A61     		str	r2, [r3, #24]
  49 0010 9A69     		ldr	r2, [r3, #24]
  50 0012 02F01002 		and	r2, r2, #16
  51 0016 0192     		str	r2, [sp, #4]
  52 0018 019A     		ldr	r2, [sp, #4]
  53              	.LBE2:
  54              	.LBB3:
 505:Src/main.c    ****   __HAL_RCC_GPIOA_CLK_ENABLE();
  55              		.loc 1 505 0
  56 001a 9A69     		ldr	r2, [r3, #24]
  57 001c 42F00402 		orr	r2, r2, #4
  58 0020 9A61     		str	r2, [r3, #24]
  59 0022 9A69     		ldr	r2, [r3, #24]
  60 0024 02F00402 		and	r2, r2, #4
  61 0028 0292     		str	r2, [sp, #8]
  62 002a 029A     		ldr	r2, [sp, #8]
  63              	.LBE3:
  64              	.LBB4:
 506:Src/main.c    ****   __HAL_RCC_GPIOB_CLK_ENABLE();
  65              		.loc 1 506 0
ARM GAS  /tmp/cc9IUS8A.s 			page 11


  66 002c 9A69     		ldr	r2, [r3, #24]
  67 002e 42F00802 		orr	r2, r2, #8
  68 0032 9A61     		str	r2, [r3, #24]
  69 0034 9B69     		ldr	r3, [r3, #24]
  70 0036 03F00803 		and	r3, r3, #8
  71 003a 0393     		str	r3, [sp, #12]
  72 003c 039B     		ldr	r3, [sp, #12]
  73              	.LBE4:
 507:Src/main.c    **** 
 508:Src/main.c    ****   /*Configure GPIO pin Output Level */
 509:Src/main.c    ****   HAL_GPIO_WritePin(GPIOC, LED1_Pin|LED2_Pin|LED3_Pin, GPIO_PIN_RESET);
  74              		.loc 1 509 0
  75 003e DFF85480 		ldr	r8, .L3+8
  76 0042 0022     		movs	r2, #0
  77 0044 3821     		movs	r1, #56
  78 0046 4046     		mov	r0, r8
  79 0048 FFF7FEFF 		bl	HAL_GPIO_WritePin
  80              	.LVL0:
 510:Src/main.c    **** 
 511:Src/main.c    ****   /*Configure GPIO pin Output Level */
 512:Src/main.c    ****   HAL_GPIO_WritePin(C_GPIO_GPIO_Port, C_GPIO_Pin, GPIO_PIN_RESET);
  81              		.loc 1 512 0
  82 004c 104C     		ldr	r4, .L3+4
  83 004e 0022     		movs	r2, #0
  84 0050 4FF48041 		mov	r1, #16384
  85 0054 2046     		mov	r0, r4
  86 0056 FFF7FEFF 		bl	HAL_GPIO_WritePin
  87              	.LVL1:
 513:Src/main.c    **** 
 514:Src/main.c    ****   /*Configure GPIO pins : LED1_Pin LED2_Pin LED3_Pin */
 515:Src/main.c    ****   GPIO_InitStruct.Pin = LED1_Pin|LED2_Pin|LED3_Pin;
  88              		.loc 1 515 0
  89 005a 3823     		movs	r3, #56
  90 005c 0493     		str	r3, [sp, #16]
 516:Src/main.c    ****   GPIO_InitStruct.Mode = GPIO_MODE_OUTPUT_PP;
  91              		.loc 1 516 0
  92 005e 0127     		movs	r7, #1
  93 0060 0597     		str	r7, [sp, #20]
 517:Src/main.c    ****   GPIO_InitStruct.Pull = GPIO_NOPULL;
  94              		.loc 1 517 0
  95 0062 0026     		movs	r6, #0
  96 0064 0696     		str	r6, [sp, #24]
 518:Src/main.c    ****   GPIO_InitStruct.Speed = GPIO_SPEED_FREQ_LOW;
  97              		.loc 1 518 0
  98 0066 0225     		movs	r5, #2
  99 0068 0795     		str	r5, [sp, #28]
 519:Src/main.c    ****   HAL_GPIO_Init(GPIOC, &GPIO_InitStruct);
 100              		.loc 1 519 0
 101 006a 04A9     		add	r1, sp, #16
 102 006c 4046     		mov	r0, r8
 103 006e FFF7FEFF 		bl	HAL_GPIO_Init
 104              	.LVL2:
 520:Src/main.c    **** 
 521:Src/main.c    ****   /*Configure GPIO pin : C_GPIO_Pin */
 522:Src/main.c    ****   GPIO_InitStruct.Pin = C_GPIO_Pin;
 105              		.loc 1 522 0
 106 0072 4FF48043 		mov	r3, #16384
ARM GAS  /tmp/cc9IUS8A.s 			page 12


 107 0076 0493     		str	r3, [sp, #16]
 523:Src/main.c    ****   GPIO_InitStruct.Mode = GPIO_MODE_OUTPUT_PP;
 108              		.loc 1 523 0
 109 0078 0597     		str	r7, [sp, #20]
 524:Src/main.c    ****   GPIO_InitStruct.Pull = GPIO_NOPULL;
 110              		.loc 1 524 0
 111 007a 0696     		str	r6, [sp, #24]
 525:Src/main.c    ****   GPIO_InitStruct.Speed = GPIO_SPEED_FREQ_LOW;
 112              		.loc 1 525 0
 113 007c 0795     		str	r5, [sp, #28]
 526:Src/main.c    ****   HAL_GPIO_Init(C_GPIO_GPIO_Port, &GPIO_InitStruct);
 114              		.loc 1 526 0
 115 007e 04A9     		add	r1, sp, #16
 116 0080 2046     		mov	r0, r4
 117 0082 FFF7FEFF 		bl	HAL_GPIO_Init
 118              	.LVL3:
 527:Src/main.c    **** 
 528:Src/main.c    **** }
 119              		.loc 1 528 0
 120 0086 08B0     		add	sp, sp, #32
 121              	.LCFI2:
 122              		.cfi_def_cfa_offset 24
 123              		@ sp needed
 124 0088 BDE8F081 		pop	{r4, r5, r6, r7, r8, pc}
 125              	.L4:
 126              		.align	2
 127              	.L3:
 128 008c 00100240 		.word	1073876992
 129 0090 000C0140 		.word	1073810432
 130 0094 00100140 		.word	1073811456
 131              		.cfi_endproc
 132              	.LFE80:
 134              		.section	.text.Func_Task0,"ax",%progbits
 135              		.align	2
 136              		.global	Func_Task0
 137              		.thumb
 138              		.thumb_func
 140              	Func_Task0:
 141              	.LFB86:
 529:Src/main.c    **** 
 530:Src/main.c    **** /* USER CODE BEGIN 4 */
 531:Src/main.c    **** 
 532:Src/main.c    **** void Setup_Icing(int Icing_value)
 533:Src/main.c    **** {
 534:Src/main.c    ****   setupCounter = 0xAA;
 535:Src/main.c    ****   uint16_t dutyCycle = 0;
 536:Src/main.c    ****   // HAL_TIM_PWM_Start(&htim3, TIM_CHANNEL_2);
 537:Src/main.c    ****   if (Icing_value > 5)
 538:Src/main.c    ****   {
 539:Src/main.c    ****     dutyCycle = 0;
 540:Src/main.c    ****     while (dutyCycle < 1000)    // ÈÄêÊ∏êÈôç‰ΩéÂä®ÂäõËæìÂá∫Ôºå‰Ωø‰ΩéÁîµÂπ≥ÊØî‰æãÂà∞950/1000
 541:Src/main.c    ****     {
 542:Src/main.c    ****       dutyCycle += 50;
 543:Src/main.c    ****       __HAL_TIM_SET_COMPARE(&htim3, TIM_CHANNEL_2, dutyCycle);
 544:Src/main.c    ****       osDelay(5);
 545:Src/main.c    ****     }
 546:Src/main.c    **** 
ARM GAS  /tmp/cc9IUS8A.s 			page 13


 547:Src/main.c    ****     while (dutyCycle > 200)    // ÈÄêÊ∏êÂçáÈ´òÂä®ÂäõËæìÂá∫Ôºå‰Ωø‰ΩéÁîµÂπ≥ÊØî‰æãÂà∞150/1000
 548:Src/main.c    ****     {
 549:Src/main.c    ****       dutyCycle -= 50;
 550:Src/main.c    ****       __HAL_TIM_SET_COMPARE(&htim3, TIM_CHANNEL_2, dutyCycle);
 551:Src/main.c    ****       osDelay(5);
 552:Src/main.c    ****     }
 553:Src/main.c    ****   }
 554:Src/main.c    **** 
 555:Src/main.c    ****   if (Icing_value <= 5 && Icing_value > 2)
 556:Src/main.c    ****   {
 557:Src/main.c    ****     dutyCycle = 0;
 558:Src/main.c    ****     while (dutyCycle < 700)    // ÈÄêÊ∏êÈôç‰ΩéÂä®ÂäõËæìÂá∫Ôºå‰Ωø‰ΩéÁîµÂπ≥ÊØî‰æãÂà∞650/1000
 559:Src/main.c    ****     {
 560:Src/main.c    ****       dutyCycle += 50;
 561:Src/main.c    ****       __HAL_TIM_SET_COMPARE(&htim3, TIM_CHANNEL_2, dutyCycle);
 562:Src/main.c    ****       osDelay(5);
 563:Src/main.c    ****     }
 564:Src/main.c    **** 
 565:Src/main.c    ****     while (dutyCycle > 200)    // ÈÄêÊ∏êÂçáÈ´òÂä®ÂäõËæìÂá∫Ôºå‰Ωø‰ΩéÁîµÂπ≥ÊØî‰æãÂà∞150/1000
 566:Src/main.c    ****     {
 567:Src/main.c    ****       dutyCycle -= 50;
 568:Src/main.c    ****       __HAL_TIM_SET_COMPARE(&htim3, TIM_CHANNEL_2, dutyCycle);
 569:Src/main.c    ****       osDelay(5);
 570:Src/main.c    ****     }
 571:Src/main.c    ****   }
 572:Src/main.c    **** }
 573:Src/main.c    **** 
 574:Src/main.c    **** void Setup_Visibility(int visibility_value)
 575:Src/main.c    **** {
 576:Src/main.c    ****   setupCounter = 0xAB;
 577:Src/main.c    ****   HAL_GPIO_WritePin(LED1_GPIO_Port, LED1_Pin, GPIO_PIN_RESET);
 578:Src/main.c    ****   HAL_GPIO_WritePin(LED2_GPIO_Port, LED2_Pin, GPIO_PIN_SET);
 579:Src/main.c    ****     
 580:Src/main.c    ****   uint16_t dutyCycle = 0;
 581:Src/main.c    ****   // HAL_TIM_PWM_Start(&htim3, TIM_CHANNEL_2);
 582:Src/main.c    ****   if (visibility_value < 5)    // ËÉΩËßÅÂ∫¶Â∞è‰∫é5ÂÖ¨Èáå
 583:Src/main.c    ****   {
 584:Src/main.c    ****     dutyCycle = 0;
 585:Src/main.c    ****     while (dutyCycle < 600)    // ÈÄêÊ∏êÈôç‰ΩéÂä®ÂäõËæìÂá∫Ôºå‰Ωø‰ΩéÁîµÂπ≥ÊØî‰æãÂà∞550/1000
 586:Src/main.c    ****     {
 587:Src/main.c    ****       dutyCycle += 50;
 588:Src/main.c    ****       __HAL_TIM_SET_COMPARE(&htim3, TIM_CHANNEL_2, dutyCycle);
 589:Src/main.c    ****       osDelay(5);
 590:Src/main.c    ****     }
 591:Src/main.c    **** 
 592:Src/main.c    ****     while (dutyCycle > 400)    // ÈÄêÊ∏êÂçáÈ´òÂä®ÂäõËæìÂá∫Ôºå‰Ωø‰ΩéÁîµÂπ≥ÊØî‰æãÂà∞350/1000
 593:Src/main.c    ****     {
 594:Src/main.c    ****       dutyCycle -= 50;
 595:Src/main.c    ****       __HAL_TIM_SET_COMPARE(&htim3, TIM_CHANNEL_2, dutyCycle);
 596:Src/main.c    ****       osDelay(5);
 597:Src/main.c    ****     }
 598:Src/main.c    ****   }
 599:Src/main.c    **** 
 600:Src/main.c    ****   if (visibility_value < 7)    // ËÉΩËßÅÂ∫¶Â∞è‰∫é7ÂÖ¨Èáå
 601:Src/main.c    ****   {
 602:Src/main.c    ****     dutyCycle = 0;
 603:Src/main.c    ****     while (dutyCycle < 700)    // ÈÄêÊ∏êÈôç‰ΩéÂä®ÂäõËæìÂá∫Ôºå‰Ωø‰ΩéÁîµÂπ≥ÊØî‰æãÂà∞650/1000
ARM GAS  /tmp/cc9IUS8A.s 			page 14


 604:Src/main.c    ****     {
 605:Src/main.c    ****       dutyCycle += 50;
 606:Src/main.c    ****       __HAL_TIM_SET_COMPARE(&htim3, TIM_CHANNEL_2, dutyCycle);
 607:Src/main.c    ****       osDelay(5);
 608:Src/main.c    ****     }
 609:Src/main.c    ****   }
 610:Src/main.c    **** }
 611:Src/main.c    **** 
 612:Src/main.c    **** void Setup_Rainfall(int Rainfall_value)
 613:Src/main.c    **** {
 614:Src/main.c    ****   setupCounter = 0xAC;
 615:Src/main.c    ****   uint16_t dutyCycle = 0;
 616:Src/main.c    ****   // HAL_TIM_PWM_Start(&htim3, TIM_CHANNEL_2);
 617:Src/main.c    ****   if (Rainfall_value > 200)     // ÈôçÈõ®ÈáèÂ§ß‰∫é200
 618:Src/main.c    ****   {
 619:Src/main.c    ****     dutyCycle = 0;
 620:Src/main.c    ****     while (dutyCycle < 900)    // ÈÄêÊ∏êÈôç‰ΩéÂä®ÂäõËæìÂá∫Ôºå‰Ωø‰ΩéÁîµÂπ≥ÊØî‰æãÂà∞850/1000
 621:Src/main.c    ****     {
 622:Src/main.c    ****       dutyCycle += 50;
 623:Src/main.c    ****       __HAL_TIM_SET_COMPARE(&htim3, TIM_CHANNEL_2, dutyCycle);
 624:Src/main.c    ****       osDelay(5);
 625:Src/main.c    ****     }
 626:Src/main.c    **** 
 627:Src/main.c    ****     while (dutyCycle > 200)    // ÈÄêÊ∏êÂçáÈ´òÂä®ÂäõËæìÂá∫Ôºå‰Ωø‰ΩéÁîµÂπ≥ÊØî‰æãÂà∞150/1000
 628:Src/main.c    ****     {
 629:Src/main.c    ****       dutyCycle -= 50;
 630:Src/main.c    ****       __HAL_TIM_SET_COMPARE(&htim3, TIM_CHANNEL_2, dutyCycle);
 631:Src/main.c    ****       osDelay(5);
 632:Src/main.c    ****     }
 633:Src/main.c    ****   }
 634:Src/main.c    **** 
 635:Src/main.c    ****   if (Rainfall_value <= 200 && Rainfall_value > 100)    // ÈôçÈõ®ÈáèÂú®100-200Èó¥
 636:Src/main.c    ****   {
 637:Src/main.c    ****     dutyCycle = 0;
 638:Src/main.c    ****     while (dutyCycle < 700)    // ÈÄêÊ∏êÈôç‰ΩéÂä®ÂäõËæìÂá∫Ôºå‰Ωø‰ΩéÁîµÂπ≥ÊØî‰æãÂà∞650/1000
 639:Src/main.c    ****     {
 640:Src/main.c    ****       dutyCycle += 50;
 641:Src/main.c    ****       __HAL_TIM_SET_COMPARE(&htim3, TIM_CHANNEL_2, dutyCycle);
 642:Src/main.c    ****       osDelay(5);
 643:Src/main.c    ****     }
 644:Src/main.c    **** 
 645:Src/main.c    ****     while (dutyCycle > 200)    // ÈÄêÊ∏êÂçáÈ´òÂä®ÂäõËæìÂá∫Ôºå‰Ωø‰ΩéÁîµÂπ≥ÊØî‰æãÂà∞150/1000
 646:Src/main.c    ****     {
 647:Src/main.c    ****       dutyCycle -= 50;
 648:Src/main.c    ****       __HAL_TIM_SET_COMPARE(&htim3, TIM_CHANNEL_2, dutyCycle);
 649:Src/main.c    ****       osDelay(5);
 650:Src/main.c    ****     }
 651:Src/main.c    ****   }
 652:Src/main.c    **** }
 653:Src/main.c    **** 
 654:Src/main.c    **** void Setup_Light(int Light_value)
 655:Src/main.c    **** {
 656:Src/main.c    ****   setupCounter = 0xAD;
 657:Src/main.c    ****   if (Light_value < 200)
 658:Src/main.c    ****   {
 659:Src/main.c    ****     HAL_GPIO_WritePin(LED1_GPIO_Port, LED1_Pin, GPIO_PIN_SET);
 660:Src/main.c    ****     HAL_GPIO_WritePin(LED2_GPIO_Port, LED2_Pin, GPIO_PIN_SET);
ARM GAS  /tmp/cc9IUS8A.s 			page 15


 661:Src/main.c    ****     HAL_GPIO_WritePin(LED3_GPIO_Port, LED3_Pin, GPIO_PIN_SET);
 662:Src/main.c    ****   }
 663:Src/main.c    ****   if (Light_value < 300 && Light_value >= 200)
 664:Src/main.c    ****   {
 665:Src/main.c    ****     HAL_GPIO_WritePin(LED1_GPIO_Port, LED1_Pin, GPIO_PIN_SET);
 666:Src/main.c    ****     HAL_GPIO_WritePin(LED2_GPIO_Port, LED2_Pin, GPIO_PIN_SET);
 667:Src/main.c    ****     HAL_GPIO_WritePin(LED3_GPIO_Port, LED3_Pin, GPIO_PIN_RESET);
 668:Src/main.c    ****   }
 669:Src/main.c    ****   if (Light_value < 400 && Light_value >= 300)
 670:Src/main.c    ****   {
 671:Src/main.c    ****     HAL_GPIO_WritePin(LED1_GPIO_Port, LED1_Pin, GPIO_PIN_SET);
 672:Src/main.c    ****     HAL_GPIO_WritePin(LED2_GPIO_Port, LED2_Pin, GPIO_PIN_RESET);
 673:Src/main.c    ****     HAL_GPIO_WritePin(LED3_GPIO_Port, LED3_Pin, GPIO_PIN_RESET);
 674:Src/main.c    ****   }
 675:Src/main.c    ****   if (Light_value >= 400)
 676:Src/main.c    ****   {
 677:Src/main.c    ****     HAL_GPIO_WritePin(LED1_GPIO_Port, LED1_Pin, GPIO_PIN_RESET);
 678:Src/main.c    ****     HAL_GPIO_WritePin(LED2_GPIO_Port, LED2_Pin, GPIO_PIN_RESET);
 679:Src/main.c    ****     HAL_GPIO_WritePin(LED3_GPIO_Port, LED3_Pin, GPIO_PIN_RESET);
 680:Src/main.c    ****   }
 681:Src/main.c    **** }
 682:Src/main.c    **** 
 683:Src/main.c    **** void Setup_Flow_Speed(int Flow_value, int speed_value)
 684:Src/main.c    **** {
 685:Src/main.c    ****   setupCounter = 0xAE;
 686:Src/main.c    ****   uint16_t dutyCycle = 0;
 687:Src/main.c    ****   // HAL_TIM_PWM_Start(&htim3, TIM_CHANNEL_2);
 688:Src/main.c    ****   if (Flow_value > 30 && speed_value < 30)     // ËΩ¶ÊµÅÈáèÂ§ß‰∫é30ÔºåËΩ¶ÊµÅÈÄüÂ∫¶Â∞è‰∫é30
 689:Src/main.c    ****   {
 690:Src/main.c    ****     dutyCycle = 0;
 691:Src/main.c    ****     while (dutyCycle < 600)    // ÈÄêÊ∏êÈôç‰ΩéÂä®ÂäõËæìÂá∫Ôºå‰Ωø‰ΩéÁîµÂπ≥ÊØî‰æãÂà∞550/1000
 692:Src/main.c    ****     {
 693:Src/main.c    ****       dutyCycle += 50;
 694:Src/main.c    ****       __HAL_TIM_SET_COMPARE(&htim3, TIM_CHANNEL_2, dutyCycle);
 695:Src/main.c    ****       osDelay(5);
 696:Src/main.c    ****     }
 697:Src/main.c    ****   }
 698:Src/main.c    **** 
 699:Src/main.c    ****   if (Flow_value > 45 && speed_value < 20)    // ËΩ¶ÊµÅÈáèÂ§ß‰∫é45ÔºåËΩ¶ÊµÅÈÄüÂ∫¶Â∞è‰∫é20
 700:Src/main.c    ****   {
 701:Src/main.c    ****     dutyCycle = 0;
 702:Src/main.c    ****     while (dutyCycle < 800)    // ÈÄêÊ∏êÈôç‰ΩéÂä®ÂäõËæìÂá∫Ôºå‰Ωø‰ΩéÁîµÂπ≥ÊØî‰æãÂà∞750/1000
 703:Src/main.c    ****     {
 704:Src/main.c    ****       dutyCycle += 50;
 705:Src/main.c    ****       __HAL_TIM_SET_COMPARE(&htim3, TIM_CHANNEL_2, dutyCycle);
 706:Src/main.c    ****       osDelay(5);
 707:Src/main.c    ****     }
 708:Src/main.c    ****   }
 709:Src/main.c    **** }
 710:Src/main.c    **** /* USER CODE END 4 */
 711:Src/main.c    **** 
 712:Src/main.c    **** /* Func_Task0 function */
 713:Src/main.c    **** void Func_Task0(void const * argument)
 714:Src/main.c    **** {
 142              		.loc 1 714 0
 143              		.cfi_startproc
 144              		@ Volatile: function does not return.
ARM GAS  /tmp/cc9IUS8A.s 			page 16


 145              		@ args = 0, pretend = 0, frame = 0
 146              		@ frame_needed = 0, uses_anonymous_args = 0
 147              	.LVL4:
 148 0000 08B5     		push	{r3, lr}
 149              	.LCFI3:
 150              		.cfi_def_cfa_offset 8
 151              		.cfi_offset 3, -8
 152              		.cfi_offset 14, -4
 715:Src/main.c    **** 
 716:Src/main.c    ****   /* USER CODE BEGIN 5 */
 717:Src/main.c    ****     // hcan.pTxMsg = &TxMessage;    // hc.pTxMsg Êåâ TxMessageÊ†ºÂºè
 718:Src/main.c    ****     hcan.pRxMsg = &RxMessage;
 153              		.loc 1 718 0
 154 0002 194D     		ldr	r5, .L9
 155 0004 194B     		ldr	r3, .L9+4
 156 0006 6B63     		str	r3, [r5, #52]
 719:Src/main.c    **** 
 720:Src/main.c    ****     HAL_UART_Transmit(&huart2,"\r\nFunc_Task0\r\n",14,10);
 157              		.loc 1 720 0
 158 0008 0A23     		movs	r3, #10
 159 000a 0E22     		movs	r2, #14
 160 000c 1849     		ldr	r1, .L9+8
 161 000e 1948     		ldr	r0, .L9+12
 162              	.LVL5:
 163 0010 FFF7FEFF 		bl	HAL_UART_Transmit
 164              	.LVL6:
 721:Src/main.c    **** 
 722:Src/main.c    ****     sFliterConfig.FilterNumber         = 0;
 165              		.loc 1 722 0
 166 0014 1849     		ldr	r1, .L9+16
 167 0016 0024     		movs	r4, #0
 168 0018 4C61     		str	r4, [r1, #20]
 723:Src/main.c    ****     sFliterConfig.FilterMode           = CAN_FILTERMODE_IDMASK;
 169              		.loc 1 723 0
 170 001a 8C61     		str	r4, [r1, #24]
 724:Src/main.c    ****     sFliterConfig.FilterScale          = CAN_FILTERSCALE_32BIT;            // Êü•Áúã‰∫Ü‰∏ã.hÊñá‰ª∂Ô
 171              		.loc 1 724 0
 172 001c 0123     		movs	r3, #1
 173 001e CB61     		str	r3, [r1, #28]
 725:Src/main.c    ****     sFliterConfig.FilterIdHigh         = 0x0000;
 174              		.loc 1 725 0
 175 0020 0C60     		str	r4, [r1]
 726:Src/main.c    ****     sFliterConfig.FilterIdLow          = 0x0000;
 176              		.loc 1 726 0
 177 0022 4C60     		str	r4, [r1, #4]
 727:Src/main.c    ****     sFliterConfig.FilterMaskIdHigh     = 0x0000;
 178              		.loc 1 727 0
 179 0024 8C60     		str	r4, [r1, #8]
 728:Src/main.c    ****     sFliterConfig.FilterMaskIdLow      = 0x0000;
 180              		.loc 1 728 0
 181 0026 CC60     		str	r4, [r1, #12]
 729:Src/main.c    ****     sFliterConfig.FilterFIFOAssignment = CAN_FILTER_FIFO0;
 182              		.loc 1 729 0
 183 0028 0C61     		str	r4, [r1, #16]
 730:Src/main.c    ****     sFliterConfig.FilterActivation     = ENABLE;
 184              		.loc 1 730 0
 185 002a 0B62     		str	r3, [r1, #32]
ARM GAS  /tmp/cc9IUS8A.s 			page 17


 731:Src/main.c    ****     // sFliterConfig.BankNumber           = 14;
 732:Src/main.c    **** 
 733:Src/main.c    ****     HAL_CAN_ConfigFilter(&hcan, &sFliterConfig);
 186              		.loc 1 733 0
 187 002c 2846     		mov	r0, r5
 188 002e FFF7FEFF 		bl	HAL_CAN_ConfigFilter
 189              	.LVL7:
 734:Src/main.c    **** 
 735:Src/main.c    ****     HAL_CAN_Receive_IT(&hcan, CAN_FIFO0);
 190              		.loc 1 735 0
 191 0032 2146     		mov	r1, r4
 192 0034 2846     		mov	r0, r5
 193 0036 FFF7FEFF 		bl	HAL_CAN_Receive_IT
 194              	.LVL8:
 736:Src/main.c    **** 
 737:Src/main.c    ****     HAL_TIM_PWM_Start(&htim3, TIM_CHANNEL_2);
 195              		.loc 1 737 0
 196 003a 104C     		ldr	r4, .L9+20
 197 003c 0421     		movs	r1, #4
 198 003e 2046     		mov	r0, r4
 199 0040 FFF7FEFF 		bl	HAL_TIM_PWM_Start
 200              	.LVL9:
 738:Src/main.c    ****     __HAL_TIM_SET_COMPARE(&htim3, TIM_CHANNEL_2, 999);
 201              		.loc 1 738 0
 202 0044 2368     		ldr	r3, [r4]
 203 0046 40F2E732 		movw	r2, #999
 204 004a 9A63     		str	r2, [r3, #56]
 205              	.L6:
 739:Src/main.c    **** 
 740:Src/main.c    ****     // hcan.pTxMsg -> ExtId = 0x1314;
 741:Src/main.c    ****     // hcan.pTxMsg -> RTR = CAN_RTR_DATA;
 742:Src/main.c    ****     // hcan.pTxMsg -> IDE = CAN_ID_EXT;
 743:Src/main.c    ****     // hcan.pTxMsg -> DLC = 2;
 744:Src/main.c    ****     // hcan.pTxMsg -> Data[0] = 0xAB;
 745:Src/main.c    ****     // hcan.pTxMsg -> Data[1] = 0xCD;
 746:Src/main.c    **** 
 747:Src/main.c    ****     // HAL_CAN_Transmit(&hcan, 10);  // Ê≥®ÊÑèÁ¨¨‰∫å‰∏™ÂèÇÊï∞ÊòØtimeoutÔºå‰∏éÂ∏∏ËßÑÂ∫ìÂáΩÊï∞‰∏çÂêå
 748:Src/main.c    ****     /* Infinite loop */
 749:Src/main.c    ****     for(;;)
 750:Src/main.c    ****     {
 751:Src/main.c    ****         // osDelay(1000);
 752:Src/main.c    ****         // HAL_GPIO_WritePin(LED1_GPIO_Port, LED1_Pin, GPIO_PIN_RESET);
 753:Src/main.c    ****         // HAL_CAN_Transmit(&hcan, 10);
 754:Src/main.c    **** 
 755:Src/main.c    ****         osDelay(1);
 206              		.loc 1 755 0
 207 004c 0120     		movs	r0, #1
 208 004e FFF7FEFF 		bl	osDelay
 209              	.LVL10:
 756:Src/main.c    ****         if (flag == 0)
 210              		.loc 1 756 0
 211 0052 0B4B     		ldr	r3, .L9+24
 212 0054 1B68     		ldr	r3, [r3]
 213 0056 002B     		cmp	r3, #0
 214 0058 F8D1     		bne	.L6
 757:Src/main.c    ****         {
 758:Src/main.c    ****           __HAL_TIM_SET_COMPARE(&htim3, TIM_CHANNEL_2, 999);    // Âú®Ê≤°Êúâ‰º†ÊÑüÂô®Êï∞ÊçÆÂà∞Êù•Êó
ARM GAS  /tmp/cc9IUS8A.s 			page 18


 215              		.loc 1 758 0
 216 005a 084B     		ldr	r3, .L9+20
 217 005c 1B68     		ldr	r3, [r3]
 218 005e 40F2E732 		movw	r2, #999
 219 0062 9A63     		str	r2, [r3, #56]
 220 0064 F2E7     		b	.L6
 221              	.L10:
 222 0066 00BF     		.align	2
 223              	.L9:
 224 0068 00000000 		.word	hcan
 225 006c 00000000 		.word	RxMessage
 226 0070 00000000 		.word	.LC4
 227 0074 00000000 		.word	huart2
 228 0078 00000000 		.word	sFliterConfig
 229 007c 00000000 		.word	htim3
 230 0080 00000000 		.word	flag
 231              		.cfi_endproc
 232              	.LFE86:
 234              		.section	.text.configure_tracing,"ax",%progbits
 235              		.align	2
 236              		.global	configure_tracing
 237              		.thumb
 238              		.thumb_func
 240              	configure_tracing:
 241              	.LFB69:
 115:Src/main.c    ****     /* STM32 specific configuration to enable the TRACESWO IO pin */
 242              		.loc 1 115 0
 243              		.cfi_startproc
 244              		@ args = 0, pretend = 0, frame = 0
 245              		@ frame_needed = 0, uses_anonymous_args = 0
 246              		@ link register save eliminated.
 117:Src/main.c    ****     AFIO->MAPR |= (2 << 24); // Disable JTAG to release TRACESWO
 247              		.loc 1 117 0
 248 0000 284A     		ldr	r2, .L13
 249 0002 9369     		ldr	r3, [r2, #24]
 250 0004 43F00103 		orr	r3, r3, #1
 251 0008 9361     		str	r3, [r2, #24]
 118:Src/main.c    ****     DBGMCU->CR |= DBGMCU_CR_TRACE_IOEN; // Enable IO trace pins 
 252              		.loc 1 118 0
 253 000a A2F58832 		sub	r2, r2, #69632
 254 000e 5368     		ldr	r3, [r2, #4]
 255 0010 43F00073 		orr	r3, r3, #33554432
 256 0014 5360     		str	r3, [r2, #4]
 119:Src/main.c    ****     
 257              		.loc 1 119 0
 258 0016 244B     		ldr	r3, .L13+4
 259 0018 5A68     		ldr	r2, [r3, #4]
 260 001a 42F02002 		orr	r2, r2, #32
 261 001e 5A60     		str	r2, [r3, #4]
 121:Src/main.c    ****     // DBGMCU->CR |= 0x00000020; 
 262              		.loc 1 121 0
 263 0020 5A68     		ldr	r2, [r3, #4]
 124:Src/main.c    ****     {
 264              		.loc 1 124 0
 265 0022 5B68     		ldr	r3, [r3, #4]
 266 0024 13F0200F 		tst	r3, #32
 267 0028 3BD0     		beq	.L11
ARM GAS  /tmp/cc9IUS8A.s 			page 19


 134:Src/main.c    ****     TPI->ACPR = 8; // Trace clock = HCLK/(x+1) = 8MHz    ËøôÈáåHCLKÊòØÂ§ÑÁêÜÂô®Êó∂Èíü,Ëøô‰∏™ÂÄºÁöÑÂ
 268              		.loc 1 134 0
 269 002a 204A     		ldr	r2, .L13+8
 270 002c D368     		ldr	r3, [r2, #12]
 271 002e 43F08073 		orr	r3, r3, #16777216
 272 0032 D360     		str	r3, [r2, #12]
 135:Src/main.c    ****     TPI->SPPR = 2; // Pin protocol = NRZ/USART
 273              		.loc 1 135 0
 274 0034 1E4B     		ldr	r3, .L13+12
 275 0036 0822     		movs	r2, #8
 276 0038 1A61     		str	r2, [r3, #16]
 136:Src/main.c    ****     
 277              		.loc 1 136 0
 278 003a 0221     		movs	r1, #2
 279 003c C3F8F010 		str	r1, [r3, #240]
 139:Src/main.c    ****     		       // TPIU packet framing enabled when bit 2 is set.
 280              		.loc 1 139 0
 281 0040 4FF48072 		mov	r2, #256
 282 0044 C3F80423 		str	r2, [r3, #772]
 145:Src/main.c    ****                                            // 0 = x32, 1 = x512  //
 283              		.loc 1 145 0
 284 0048 1A4A     		ldr	r2, .L13+16
 285 004a A3F57C33 		sub	r3, r3, #258048
 286 004e 1A60     		str	r2, [r3]
 158:Src/main.c    ****     ITM->TCR = (1 << ITM_TCR_TraceBusID_Pos)  // Trace bus ID for TPIU
 287              		.loc 1 158 0
 288 0050 4FF06043 		mov	r3, #-536870912
 289 0054 A2F16952 		sub	r2, r2, #977272832
 290 0058 A2F5A212 		sub	r2, r2, #1327104
 291 005c A2F6AC32 		subw	r2, r2, #2988
 292 0060 C3F8B02F 		str	r2, [r3, #4016]
 159:Src/main.c    ****              | (1 << ITM_TCR_DWTENA_Pos)      // Enable events from DWT
 293              		.loc 1 159 0
 294 0064 1448     		ldr	r0, .L13+20
 295 0066 C3F8800E 		str	r0, [r3, #3712]
 165:Src/main.c    **** 
 296              		.loc 1 165 0
 297 006a 4FF0FF30 		mov	r0, #-1
 298 006e C3F8000E 		str	r0, [r3, #3584]
 176:Src/main.c    ****     ETM_SetupMode();
 299              		.loc 1 176 0
 300 0072 03F58223 		add	r3, r3, #266240
 301 0076 C3F8B02F 		str	r2, [r3, #4016]
 177:Src/main.c    ****     ETM->CR = ETM_CR_ETMEN // Enable ETM output port
 302              		.loc 1 177 0
 303 007a 1A68     		ldr	r2, [r3]
 304 007c 42F48062 		orr	r2, r2, #1024
 305 0080 1A60     		str	r2, [r3]
 178:Src/main.c    ****             | ETM_CR_STALL_PROCESSOR // Stall processor when fifo is full
 306              		.loc 1 178 0
 307 0082 4FF41962 		mov	r2, #2448
 308 0086 1A60     		str	r2, [r3]
 182:Src/main.c    ****     ETM->TECR1 = ETM_TECR1_EXCLUDE; // Trace always enabled
 309              		.loc 1 182 0
 310 0088 C3F80012 		str	r1, [r3, #512]
 183:Src/main.c    ****     ETM->FFRR = ETM_FFRR_EXCLUDE; // Stalling always enabled
 311              		.loc 1 183 0
ARM GAS  /tmp/cc9IUS8A.s 			page 20


 312 008c 4FF08072 		mov	r2, #16777216
 313 0090 5A62     		str	r2, [r3, #36]
 184:Src/main.c    ****     ETM->FFLR = 24; // Stall when less than N bytes free in FIFO (range 1..24)
 314              		.loc 1 184 0
 315 0092 9A62     		str	r2, [r3, #40]
 185:Src/main.c    ****                     // Larger values mean less latency in trace, but more stalls.
 316              		.loc 1 185 0
 317 0094 1822     		movs	r2, #24
 318 0096 DA62     		str	r2, [r3, #44]
 189:Src/main.c    ****     ETM->TEEVR = 0x0000006F;
 319              		.loc 1 189 0
 320 0098 44F26F02 		movw	r2, #16495
 321 009c 9A60     		str	r2, [r3, #8]
 190:Src/main.c    ****     //ETM->TSSCR = 0x00000001;
 322              		.loc 1 190 0
 323 009e 6F22     		movs	r2, #111
 324 00a0 1A62     		str	r2, [r3, #32]
 325              	.L11:
 326 00a2 7047     		bx	lr
 327              	.L14:
 328              		.align	2
 329              	.L13:
 330 00a4 00100240 		.word	1073876992
 331 00a8 002004E0 		.word	-536600576
 332 00ac F0ED00E0 		.word	-536810000
 333 00b0 000004E0 		.word	-536608768
 334 00b4 011A0100 		.word	72193
 335 00b8 0F000100 		.word	65551
 336              		.cfi_endproc
 337              	.LFE69:
 339              		.section	.text.configure_watchpoint,"ax",%progbits
 340              		.align	2
 341              		.global	configure_watchpoint
 342              		.thumb
 343              		.thumb_func
 345              	configure_watchpoint:
 346              	.LFB70:
 196:Src/main.c    ****     /* This is an example of how to configure DWT to monitor a watchpoint.
 347              		.loc 1 196 0
 348              		.cfi_startproc
 349              		@ args = 0, pretend = 0, frame = 0
 350              		@ frame_needed = 0, uses_anonymous_args = 0
 351              		@ link register save eliminated.
 202:Src/main.c    ****     DWT->MASK0 = 8;							 //Â±èËîΩÊéâÊï∞ÊçÆÂú∞ÂùÄÁöÑÂêé5‰ΩçÔºåÁõÆÂâçDWT->COMP0ÁöÑÂÄºÊòØGPIOAÁöÑÂú∞
 352              		.loc 1 202 0
 353 0000 084B     		ldr	r3, .L16
 354 0002 094A     		ldr	r2, .L16+4
 355 0004 1A62     		str	r2, [r3, #32]
 203:Src/main.c    **** 											//ÂèØËÉΩÊòØÂá∫‰∫éÂä†Âø´ÊØîËæÉÈÄüÂ∫¶ÁöÑÂéüÂõ†ÂêßÔºåÈÇ£‰∏∫‰ªÄ‰πà‰∏çÊääMASK[3:0]
 356              		.loc 1 203 0
 357 0006 0822     		movs	r2, #8
 358 0008 5A62     		str	r2, [r3, #36]
 207:Src/main.c    ****                    | (1 << DWT_FUNCTION_EMITRANGE_Pos); // Ëøô‰∏Ä‰Ωç‰∏∫1ÔºåÂâçÈù¢ÈÇ£Âõõ‰ΩçÊòØ0010Ë°
 359              		.loc 1 207 0
 360 000a 2222     		movs	r2, #34
 361 000c 9A62     		str	r2, [r3, #40]
 214:Src/main.c    ****     DWT->MASK1 = 2;
ARM GAS  /tmp/cc9IUS8A.s 			page 21


 362              		.loc 1 214 0
 363 000e 074A     		ldr	r2, .L16+8
 364 0010 1A63     		str	r2, [r3, #48]
 215:Src/main.c    ****     DWT->FUNCTION1 = (3 << DWT_FUNCTION_FUNCTION_Pos); // Report data and PC on watchpoint hit
 365              		.loc 1 215 0
 366 0012 0221     		movs	r1, #2
 367 0014 5963     		str	r1, [r3, #52]
 216:Src/main.c    **** 
 368              		.loc 1 216 0
 369 0016 0322     		movs	r2, #3
 370 0018 9A63     		str	r2, [r3, #56]
 218:Src/main.c    ****     DWT->MASK2 = 2;
 371              		.loc 1 218 0
 372 001a 0548     		ldr	r0, .L16+12
 373 001c 1864     		str	r0, [r3, #64]
 219:Src/main.c    ****     DWT->FUNCTION2 = (3 << DWT_FUNCTION_FUNCTION_Pos); // Report data and PC on watchpoint hit  
 374              		.loc 1 219 0
 375 001e 5964     		str	r1, [r3, #68]
 220:Src/main.c    **** }
 376              		.loc 1 220 0
 377 0020 9A64     		str	r2, [r3, #72]
 378 0022 7047     		bx	lr
 379              	.L17:
 380              		.align	2
 381              	.L16:
 382 0024 001000E0 		.word	-536866816
 383 0028 000C0140 		.word	1073810432
 384 002c 00000000 		.word	.LANCHOR0
 385 0030 00000000 		.word	.LANCHOR1
 386              		.cfi_endproc
 387              	.LFE70:
 389              		.section	.text.ITM_Print,"ax",%progbits
 390              		.align	2
 391              		.global	ITM_Print
 392              		.thumb
 393              		.thumb_func
 395              	ITM_Print:
 396              	.LFB71:
 224:Src/main.c    ****     globalCounter = 0xFC;
 397              		.loc 1 224 0
 398              		.cfi_startproc
 399              		@ args = 0, pretend = 0, frame = 0
 400              		@ frame_needed = 0, uses_anonymous_args = 0
 401              		@ link register save eliminated.
 402              	.LVL11:
 225:Src/main.c    ****     if ((ITM->TCR & ITM_TCR_ITMENA_Msk) && (ITM->TER & (1UL << port)))
 403              		.loc 1 225 0
 404 0000 FC22     		movs	r2, #252
 405 0002 104B     		ldr	r3, .L22
 406 0004 1A60     		str	r2, [r3]
 226:Src/main.c    ****     {
 407              		.loc 1 226 0
 408 0006 4FF06043 		mov	r3, #-536870912
 409 000a D3F8803E 		ldr	r3, [r3, #3712]
 410 000e 13F0010F 		tst	r3, #1
 411 0012 16D0     		beq	.L18
 226:Src/main.c    ****     {
ARM GAS  /tmp/cc9IUS8A.s 			page 22


 412              		.loc 1 226 0 is_stmt 0 discriminator 1
 413 0014 4FF06043 		mov	r3, #-536870912
 414 0018 D3F8003E 		ldr	r3, [r3, #3584]
 415 001c C340     		lsrs	r3, r3, r0
 416 001e 13F0010F 		tst	r3, #1
 417 0022 0BD1     		bne	.L20
 418 0024 7047     		bx	lr
 419              	.L21:
 230:Src/main.c    ****             ITM->PORT[port].u8 = *p++;
 420              		.loc 1 230 0 is_stmt 1 discriminator 1
 421 0026 4FF06043 		mov	r3, #-536870912
 422 002a 53F82030 		ldr	r3, [r3, r0, lsl #2]
 423 002e 002B     		cmp	r3, #0
 424 0030 F9D0     		beq	.L21
 231:Src/main.c    ****         }   
 425              		.loc 1 231 0
 426 0032 0131     		adds	r1, r1, #1
 427              	.LVL12:
 428 0034 4FF06043 		mov	r3, #-536870912
 429 0038 03F82020 		strb	r2, [r3, r0, lsl #2]
 430              	.L20:
 228:Src/main.c    ****         {
 431              		.loc 1 228 0
 432 003c 0A78     		ldrb	r2, [r1]	@ zero_extendqisi2
 433 003e 002A     		cmp	r2, #0
 434 0040 F1D1     		bne	.L21
 435              	.L18:
 436 0042 7047     		bx	lr
 437              	.L23:
 438              		.align	2
 439              	.L22:
 440 0044 00000000 		.word	.LANCHOR0
 441              		.cfi_endproc
 442              	.LFE71:
 444              		.section	.text.ITM_SendValue,"ax",%progbits
 445              		.align	2
 446              		.global	ITM_SendValue
 447              		.thumb
 448              		.thumb_func
 450              	ITM_SendValue:
 451              	.LFB72:
 237:Src/main.c    ****     if ((ITM->TCR & ITM_TCR_ITMENA_Msk) && (ITM->TER & (1UL << port)))
 452              		.loc 1 237 0
 453              		.cfi_startproc
 454              		@ args = 0, pretend = 0, frame = 0
 455              		@ frame_needed = 0, uses_anonymous_args = 0
 456              		@ link register save eliminated.
 457              	.LVL13:
 238:Src/main.c    ****     {
 458              		.loc 1 238 0
 459 0000 4FF06043 		mov	r3, #-536870912
 460 0004 D3F8803E 		ldr	r3, [r3, #3712]
 461 0008 13F0010F 		tst	r3, #1
 462 000c 11D0     		beq	.L24
 238:Src/main.c    ****     {
 463              		.loc 1 238 0 is_stmt 0 discriminator 1
 464 000e 4FF06043 		mov	r3, #-536870912
ARM GAS  /tmp/cc9IUS8A.s 			page 23


 465 0012 D3F8003E 		ldr	r3, [r3, #3584]
 466 0016 C340     		lsrs	r3, r3, r0
 467 0018 13F0010F 		tst	r3, #1
 468 001c 09D0     		beq	.L24
 469              	.L26:
 240:Src/main.c    ****         ITM->PORT[port].u32 = value;
 470              		.loc 1 240 0 is_stmt 1 discriminator 1
 471 001e 4FF06043 		mov	r3, #-536870912
 472 0022 53F82030 		ldr	r3, [r3, r0, lsl #2]
 473 0026 002B     		cmp	r3, #0
 474 0028 F9D0     		beq	.L26
 241:Src/main.c    ****     }
 475              		.loc 1 241 0
 476 002a 4FF06043 		mov	r3, #-536870912
 477 002e 43F82010 		str	r1, [r3, r0, lsl #2]
 478              	.L24:
 479 0032 7047     		bx	lr
 480              		.cfi_endproc
 481              	.LFE72:
 483              		.section	.text._write,"ax",%progbits
 484              		.align	2
 485              		.global	_write
 486              		.thumb
 487              		.thumb_func
 489              	_write:
 490              	.LFB73:
 246:Src/main.c    ****   HAL_UART_Transmit(&huart2, (uint8_t*)ptr, len, 0xFFFF);
 491              		.loc 1 246 0
 492              		.cfi_startproc
 493              		@ args = 0, pretend = 0, frame = 0
 494              		@ frame_needed = 0, uses_anonymous_args = 0
 495              	.LVL14:
 496 0000 10B5     		push	{r4, lr}
 497              	.LCFI4:
 498              		.cfi_def_cfa_offset 8
 499              		.cfi_offset 4, -8
 500              		.cfi_offset 14, -4
 501 0002 1446     		mov	r4, r2
 247:Src/main.c    ****   return len;
 502              		.loc 1 247 0
 503 0004 4FF6FF73 		movw	r3, #65535
 504 0008 92B2     		uxth	r2, r2
 505              	.LVL15:
 506 000a 0248     		ldr	r0, .L29
 507              	.LVL16:
 508 000c FFF7FEFF 		bl	HAL_UART_Transmit
 509              	.LVL17:
 249:Src/main.c    **** /* USER CODE END 0 */
 510              		.loc 1 249 0
 511 0010 2046     		mov	r0, r4
 512 0012 10BD     		pop	{r4, pc}
 513              	.LVL18:
 514              	.L30:
 515              		.align	2
 516              	.L29:
 517 0014 00000000 		.word	huart2
 518              		.cfi_endproc
ARM GAS  /tmp/cc9IUS8A.s 			page 24


 519              	.LFE73:
 521              		.section	.text.Setup_Icing,"ax",%progbits
 522              		.align	2
 523              		.global	Setup_Icing
 524              		.thumb
 525              		.thumb_func
 527              	Setup_Icing:
 528              	.LFB81:
 533:Src/main.c    ****   setupCounter = 0xAA;
 529              		.loc 1 533 0
 530              		.cfi_startproc
 531              		@ args = 0, pretend = 0, frame = 0
 532              		@ frame_needed = 0, uses_anonymous_args = 0
 533              	.LVL19:
 534 0000 38B5     		push	{r3, r4, r5, lr}
 535              	.LCFI5:
 536              		.cfi_def_cfa_offset 16
 537              		.cfi_offset 3, -16
 538              		.cfi_offset 4, -12
 539              		.cfi_offset 5, -8
 540              		.cfi_offset 14, -4
 541 0002 0546     		mov	r5, r0
 534:Src/main.c    ****   uint16_t dutyCycle = 0;
 542              		.loc 1 534 0
 543 0004 AA22     		movs	r2, #170
 544 0006 1D4B     		ldr	r3, .L45
 545 0008 1A60     		str	r2, [r3]
 546              	.LVL20:
 537:Src/main.c    ****   {
 547              		.loc 1 537 0
 548 000a 0528     		cmp	r0, #5
 549 000c 09DC     		bgt	.L42
 550 000e 17E0     		b	.L33
 551              	.LVL21:
 552              	.L34:
 542:Src/main.c    ****       __HAL_TIM_SET_COMPARE(&htim3, TIM_CHANNEL_2, dutyCycle);
 553              		.loc 1 542 0
 554 0010 3234     		adds	r4, r4, #50
 555              	.LVL22:
 556 0012 A4B2     		uxth	r4, r4
 557              	.LVL23:
 543:Src/main.c    ****       osDelay(5);
 558              		.loc 1 543 0
 559 0014 1A4B     		ldr	r3, .L45+4
 560 0016 1B68     		ldr	r3, [r3]
 561 0018 9C63     		str	r4, [r3, #56]
 544:Src/main.c    ****     }
 562              		.loc 1 544 0
 563 001a 0520     		movs	r0, #5
 564 001c FFF7FEFF 		bl	osDelay
 565              	.LVL24:
 566 0020 00E0     		b	.L32
 567              	.LVL25:
 568              	.L42:
 569 0022 0024     		movs	r4, #0
 570              	.LVL26:
 571              	.L32:
ARM GAS  /tmp/cc9IUS8A.s 			page 25


 540:Src/main.c    ****     {
 572              		.loc 1 540 0
 573 0024 B4F57A7F 		cmp	r4, #1000
 574 0028 F2D3     		bcc	.L34
 575 002a 07E0     		b	.L35
 576              	.L36:
 549:Src/main.c    ****       __HAL_TIM_SET_COMPARE(&htim3, TIM_CHANNEL_2, dutyCycle);
 577              		.loc 1 549 0
 578 002c 323C     		subs	r4, r4, #50
 579              	.LVL27:
 580 002e A4B2     		uxth	r4, r4
 581              	.LVL28:
 550:Src/main.c    ****       osDelay(5);
 582              		.loc 1 550 0
 583 0030 134B     		ldr	r3, .L45+4
 584 0032 1B68     		ldr	r3, [r3]
 585 0034 9C63     		str	r4, [r3, #56]
 551:Src/main.c    ****     }
 586              		.loc 1 551 0
 587 0036 0520     		movs	r0, #5
 588 0038 FFF7FEFF 		bl	osDelay
 589              	.LVL29:
 590              	.L35:
 547:Src/main.c    ****     {
 591              		.loc 1 547 0
 592 003c C82C     		cmp	r4, #200
 593 003e F5D8     		bhi	.L36
 594              	.LVL30:
 595              	.L33:
 555:Src/main.c    ****   {
 596              		.loc 1 555 0
 597 0040 033D     		subs	r5, r5, #3
 598              	.LVL31:
 599 0042 022D     		cmp	r5, #2
 600 0044 09D9     		bls	.L43
 601 0046 38BD     		pop	{r3, r4, r5, pc}
 602              	.LVL32:
 603              	.L39:
 560:Src/main.c    ****       __HAL_TIM_SET_COMPARE(&htim3, TIM_CHANNEL_2, dutyCycle);
 604              		.loc 1 560 0
 605 0048 3234     		adds	r4, r4, #50
 606              	.LVL33:
 607 004a A4B2     		uxth	r4, r4
 608              	.LVL34:
 561:Src/main.c    ****       osDelay(5);
 609              		.loc 1 561 0
 610 004c 0C4B     		ldr	r3, .L45+4
 611 004e 1B68     		ldr	r3, [r3]
 612 0050 9C63     		str	r4, [r3, #56]
 562:Src/main.c    ****     }
 613              		.loc 1 562 0
 614 0052 0520     		movs	r0, #5
 615 0054 FFF7FEFF 		bl	osDelay
 616              	.LVL35:
 617 0058 00E0     		b	.L37
 618              	.LVL36:
 619              	.L43:
ARM GAS  /tmp/cc9IUS8A.s 			page 26


 620 005a 0024     		movs	r4, #0
 621              	.L37:
 622              	.LVL37:
 558:Src/main.c    ****     {
 623              		.loc 1 558 0
 624 005c B4F52F7F 		cmp	r4, #700
 625 0060 F2D3     		bcc	.L39
 626 0062 07E0     		b	.L40
 627              	.L41:
 567:Src/main.c    ****       __HAL_TIM_SET_COMPARE(&htim3, TIM_CHANNEL_2, dutyCycle);
 628              		.loc 1 567 0
 629 0064 323C     		subs	r4, r4, #50
 630              	.LVL38:
 631 0066 A4B2     		uxth	r4, r4
 632              	.LVL39:
 568:Src/main.c    ****       osDelay(5);
 633              		.loc 1 568 0
 634 0068 054B     		ldr	r3, .L45+4
 635 006a 1B68     		ldr	r3, [r3]
 636 006c 9C63     		str	r4, [r3, #56]
 569:Src/main.c    ****     }
 637              		.loc 1 569 0
 638 006e 0520     		movs	r0, #5
 639 0070 FFF7FEFF 		bl	osDelay
 640              	.LVL40:
 641              	.L40:
 565:Src/main.c    ****     {
 642              		.loc 1 565 0
 643 0074 C82C     		cmp	r4, #200
 644 0076 F5D8     		bhi	.L41
 645 0078 38BD     		pop	{r3, r4, r5, pc}
 646              	.LVL41:
 647              	.L46:
 648 007a 00BF     		.align	2
 649              	.L45:
 650 007c 00000000 		.word	.LANCHOR1
 651 0080 00000000 		.word	htim3
 652              		.cfi_endproc
 653              	.LFE81:
 655              		.section	.text.Setup_Visibility,"ax",%progbits
 656              		.align	2
 657              		.global	Setup_Visibility
 658              		.thumb
 659              		.thumb_func
 661              	Setup_Visibility:
 662              	.LFB82:
 575:Src/main.c    ****   setupCounter = 0xAB;
 663              		.loc 1 575 0
 664              		.cfi_startproc
 665              		@ args = 0, pretend = 0, frame = 0
 666              		@ frame_needed = 0, uses_anonymous_args = 0
 667              	.LVL42:
 668 0000 38B5     		push	{r3, r4, r5, lr}
 669              	.LCFI6:
 670              		.cfi_def_cfa_offset 16
 671              		.cfi_offset 3, -16
 672              		.cfi_offset 4, -12
ARM GAS  /tmp/cc9IUS8A.s 			page 27


 673              		.cfi_offset 5, -8
 674              		.cfi_offset 14, -4
 675 0002 0546     		mov	r5, r0
 576:Src/main.c    ****   HAL_GPIO_WritePin(LED1_GPIO_Port, LED1_Pin, GPIO_PIN_RESET);
 676              		.loc 1 576 0
 677 0004 AB22     		movs	r2, #171
 678 0006 1D4B     		ldr	r3, .L59
 679 0008 1A60     		str	r2, [r3]
 577:Src/main.c    ****   HAL_GPIO_WritePin(LED2_GPIO_Port, LED2_Pin, GPIO_PIN_SET);
 680              		.loc 1 577 0
 681 000a 1D4C     		ldr	r4, .L59+4
 682 000c 0022     		movs	r2, #0
 683 000e 0821     		movs	r1, #8
 684 0010 2046     		mov	r0, r4
 685              	.LVL43:
 686 0012 FFF7FEFF 		bl	HAL_GPIO_WritePin
 687              	.LVL44:
 578:Src/main.c    ****     
 688              		.loc 1 578 0
 689 0016 0122     		movs	r2, #1
 690 0018 1021     		movs	r1, #16
 691 001a 2046     		mov	r0, r4
 692 001c FFF7FEFF 		bl	HAL_GPIO_WritePin
 693              	.LVL45:
 582:Src/main.c    ****   {
 694              		.loc 1 582 0
 695 0020 042D     		cmp	r5, #4
 696 0022 09DD     		ble	.L56
 697 0024 18E0     		b	.L49
 698              	.LVL46:
 699              	.L50:
 587:Src/main.c    ****       __HAL_TIM_SET_COMPARE(&htim3, TIM_CHANNEL_2, dutyCycle);
 700              		.loc 1 587 0
 701 0026 3234     		adds	r4, r4, #50
 702              	.LVL47:
 703 0028 A4B2     		uxth	r4, r4
 704              	.LVL48:
 588:Src/main.c    ****       osDelay(5);
 705              		.loc 1 588 0
 706 002a 164B     		ldr	r3, .L59+8
 707 002c 1B68     		ldr	r3, [r3]
 708 002e 9C63     		str	r4, [r3, #56]
 589:Src/main.c    ****     }
 709              		.loc 1 589 0
 710 0030 0520     		movs	r0, #5
 711 0032 FFF7FEFF 		bl	osDelay
 712              	.LVL49:
 713 0036 00E0     		b	.L48
 714              	.LVL50:
 715              	.L56:
 716 0038 0024     		movs	r4, #0
 717              	.LVL51:
 718              	.L48:
 585:Src/main.c    ****     {
 719              		.loc 1 585 0
 720 003a B4F5167F 		cmp	r4, #600
 721 003e F2D3     		bcc	.L50
ARM GAS  /tmp/cc9IUS8A.s 			page 28


 722 0040 07E0     		b	.L51
 723              	.L52:
 594:Src/main.c    ****       __HAL_TIM_SET_COMPARE(&htim3, TIM_CHANNEL_2, dutyCycle);
 724              		.loc 1 594 0
 725 0042 323C     		subs	r4, r4, #50
 726              	.LVL52:
 727 0044 A4B2     		uxth	r4, r4
 728              	.LVL53:
 595:Src/main.c    ****       osDelay(5);
 729              		.loc 1 595 0
 730 0046 0F4B     		ldr	r3, .L59+8
 731 0048 1B68     		ldr	r3, [r3]
 732 004a 9C63     		str	r4, [r3, #56]
 596:Src/main.c    ****     }
 733              		.loc 1 596 0
 734 004c 0520     		movs	r0, #5
 735 004e FFF7FEFF 		bl	osDelay
 736              	.LVL54:
 737              	.L51:
 592:Src/main.c    ****     {
 738              		.loc 1 592 0
 739 0052 B4F5C87F 		cmp	r4, #400
 740 0056 F4D8     		bhi	.L52
 741              	.LVL55:
 742              	.L49:
 600:Src/main.c    ****   {
 743              		.loc 1 600 0
 744 0058 062D     		cmp	r5, #6
 745 005a 09DD     		ble	.L57
 746 005c 38BD     		pop	{r3, r4, r5, pc}
 747              	.LVL56:
 748              	.L55:
 605:Src/main.c    ****       __HAL_TIM_SET_COMPARE(&htim3, TIM_CHANNEL_2, dutyCycle);
 749              		.loc 1 605 0
 750 005e 3234     		adds	r4, r4, #50
 751              	.LVL57:
 752 0060 A4B2     		uxth	r4, r4
 753              	.LVL58:
 606:Src/main.c    ****       osDelay(5);
 754              		.loc 1 606 0
 755 0062 084B     		ldr	r3, .L59+8
 756 0064 1B68     		ldr	r3, [r3]
 757 0066 9C63     		str	r4, [r3, #56]
 607:Src/main.c    ****     }
 758              		.loc 1 607 0
 759 0068 0520     		movs	r0, #5
 760 006a FFF7FEFF 		bl	osDelay
 761              	.LVL59:
 762 006e 00E0     		b	.L53
 763              	.LVL60:
 764              	.L57:
 765 0070 0024     		movs	r4, #0
 766              	.L53:
 767              	.LVL61:
 603:Src/main.c    ****     {
 768              		.loc 1 603 0
 769 0072 B4F52F7F 		cmp	r4, #700
ARM GAS  /tmp/cc9IUS8A.s 			page 29


 770 0076 F2D3     		bcc	.L55
 771 0078 38BD     		pop	{r3, r4, r5, pc}
 772              	.LVL62:
 773              	.L60:
 774 007a 00BF     		.align	2
 775              	.L59:
 776 007c 00000000 		.word	.LANCHOR1
 777 0080 00100140 		.word	1073811456
 778 0084 00000000 		.word	htim3
 779              		.cfi_endproc
 780              	.LFE82:
 782              		.section	.text.Setup_Rainfall,"ax",%progbits
 783              		.align	2
 784              		.global	Setup_Rainfall
 785              		.thumb
 786              		.thumb_func
 788              	Setup_Rainfall:
 789              	.LFB83:
 613:Src/main.c    ****   setupCounter = 0xAC;
 790              		.loc 1 613 0
 791              		.cfi_startproc
 792              		@ args = 0, pretend = 0, frame = 0
 793              		@ frame_needed = 0, uses_anonymous_args = 0
 794              	.LVL63:
 795 0000 38B5     		push	{r3, r4, r5, lr}
 796              	.LCFI7:
 797              		.cfi_def_cfa_offset 16
 798              		.cfi_offset 3, -16
 799              		.cfi_offset 4, -12
 800              		.cfi_offset 5, -8
 801              		.cfi_offset 14, -4
 802 0002 0546     		mov	r5, r0
 614:Src/main.c    ****   uint16_t dutyCycle = 0;
 803              		.loc 1 614 0
 804 0004 AC22     		movs	r2, #172
 805 0006 1D4B     		ldr	r3, .L75
 806 0008 1A60     		str	r2, [r3]
 807              	.LVL64:
 617:Src/main.c    ****   {
 808              		.loc 1 617 0
 809 000a C828     		cmp	r0, #200
 810 000c 09DC     		bgt	.L72
 811 000e 17E0     		b	.L63
 812              	.LVL65:
 813              	.L64:
 622:Src/main.c    ****       __HAL_TIM_SET_COMPARE(&htim3, TIM_CHANNEL_2, dutyCycle);
 814              		.loc 1 622 0
 815 0010 3234     		adds	r4, r4, #50
 816              	.LVL66:
 817 0012 A4B2     		uxth	r4, r4
 818              	.LVL67:
 623:Src/main.c    ****       osDelay(5);
 819              		.loc 1 623 0
 820 0014 1A4B     		ldr	r3, .L75+4
 821 0016 1B68     		ldr	r3, [r3]
 822 0018 9C63     		str	r4, [r3, #56]
 624:Src/main.c    ****     }
ARM GAS  /tmp/cc9IUS8A.s 			page 30


 823              		.loc 1 624 0
 824 001a 0520     		movs	r0, #5
 825 001c FFF7FEFF 		bl	osDelay
 826              	.LVL68:
 827 0020 00E0     		b	.L62
 828              	.LVL69:
 829              	.L72:
 830 0022 0024     		movs	r4, #0
 831              	.LVL70:
 832              	.L62:
 620:Src/main.c    ****     {
 833              		.loc 1 620 0
 834 0024 B4F5617F 		cmp	r4, #900
 835 0028 F2D3     		bcc	.L64
 836 002a 07E0     		b	.L65
 837              	.L66:
 629:Src/main.c    ****       __HAL_TIM_SET_COMPARE(&htim3, TIM_CHANNEL_2, dutyCycle);
 838              		.loc 1 629 0
 839 002c 323C     		subs	r4, r4, #50
 840              	.LVL71:
 841 002e A4B2     		uxth	r4, r4
 842              	.LVL72:
 630:Src/main.c    ****       osDelay(5);
 843              		.loc 1 630 0
 844 0030 134B     		ldr	r3, .L75+4
 845 0032 1B68     		ldr	r3, [r3]
 846 0034 9C63     		str	r4, [r3, #56]
 631:Src/main.c    ****     }
 847              		.loc 1 631 0
 848 0036 0520     		movs	r0, #5
 849 0038 FFF7FEFF 		bl	osDelay
 850              	.LVL73:
 851              	.L65:
 627:Src/main.c    ****     {
 852              		.loc 1 627 0
 853 003c C82C     		cmp	r4, #200
 854 003e F5D8     		bhi	.L66
 855              	.LVL74:
 856              	.L63:
 635:Src/main.c    ****   {
 857              		.loc 1 635 0
 858 0040 653D     		subs	r5, r5, #101
 859              	.LVL75:
 860 0042 632D     		cmp	r5, #99
 861 0044 09D9     		bls	.L73
 862 0046 38BD     		pop	{r3, r4, r5, pc}
 863              	.LVL76:
 864              	.L69:
 640:Src/main.c    ****       __HAL_TIM_SET_COMPARE(&htim3, TIM_CHANNEL_2, dutyCycle);
 865              		.loc 1 640 0
 866 0048 3234     		adds	r4, r4, #50
 867              	.LVL77:
 868 004a A4B2     		uxth	r4, r4
 869              	.LVL78:
 641:Src/main.c    ****       osDelay(5);
 870              		.loc 1 641 0
 871 004c 0C4B     		ldr	r3, .L75+4
ARM GAS  /tmp/cc9IUS8A.s 			page 31


 872 004e 1B68     		ldr	r3, [r3]
 873 0050 9C63     		str	r4, [r3, #56]
 642:Src/main.c    ****     }
 874              		.loc 1 642 0
 875 0052 0520     		movs	r0, #5
 876 0054 FFF7FEFF 		bl	osDelay
 877              	.LVL79:
 878 0058 00E0     		b	.L67
 879              	.LVL80:
 880              	.L73:
 881 005a 0024     		movs	r4, #0
 882              	.L67:
 883              	.LVL81:
 638:Src/main.c    ****     {
 884              		.loc 1 638 0
 885 005c B4F52F7F 		cmp	r4, #700
 886 0060 F2D3     		bcc	.L69
 887 0062 07E0     		b	.L70
 888              	.L71:
 647:Src/main.c    ****       __HAL_TIM_SET_COMPARE(&htim3, TIM_CHANNEL_2, dutyCycle);
 889              		.loc 1 647 0
 890 0064 323C     		subs	r4, r4, #50
 891              	.LVL82:
 892 0066 A4B2     		uxth	r4, r4
 893              	.LVL83:
 648:Src/main.c    ****       osDelay(5);
 894              		.loc 1 648 0
 895 0068 054B     		ldr	r3, .L75+4
 896 006a 1B68     		ldr	r3, [r3]
 897 006c 9C63     		str	r4, [r3, #56]
 649:Src/main.c    ****     }
 898              		.loc 1 649 0
 899 006e 0520     		movs	r0, #5
 900 0070 FFF7FEFF 		bl	osDelay
 901              	.LVL84:
 902              	.L70:
 645:Src/main.c    ****     {
 903              		.loc 1 645 0
 904 0074 C82C     		cmp	r4, #200
 905 0076 F5D8     		bhi	.L71
 906 0078 38BD     		pop	{r3, r4, r5, pc}
 907              	.LVL85:
 908              	.L76:
 909 007a 00BF     		.align	2
 910              	.L75:
 911 007c 00000000 		.word	.LANCHOR1
 912 0080 00000000 		.word	htim3
 913              		.cfi_endproc
 914              	.LFE83:
 916              		.section	.text.Setup_Light,"ax",%progbits
 917              		.align	2
 918              		.global	Setup_Light
 919              		.thumb
 920              		.thumb_func
 922              	Setup_Light:
 923              	.LFB84:
 655:Src/main.c    ****   setupCounter = 0xAD;
ARM GAS  /tmp/cc9IUS8A.s 			page 32


 924              		.loc 1 655 0
 925              		.cfi_startproc
 926              		@ args = 0, pretend = 0, frame = 0
 927              		@ frame_needed = 0, uses_anonymous_args = 0
 928              	.LVL86:
 929 0000 38B5     		push	{r3, r4, r5, lr}
 930              	.LCFI8:
 931              		.cfi_def_cfa_offset 16
 932              		.cfi_offset 3, -16
 933              		.cfi_offset 4, -12
 934              		.cfi_offset 5, -8
 935              		.cfi_offset 14, -4
 936 0002 0446     		mov	r4, r0
 656:Src/main.c    ****   if (Light_value < 200)
 937              		.loc 1 656 0
 938 0004 AD22     		movs	r2, #173
 939 0006 284B     		ldr	r3, .L83
 940 0008 1A60     		str	r2, [r3]
 657:Src/main.c    ****   {
 941              		.loc 1 657 0
 942 000a C728     		cmp	r0, #199
 943 000c 0FDC     		bgt	.L78
 659:Src/main.c    ****     HAL_GPIO_WritePin(LED2_GPIO_Port, LED2_Pin, GPIO_PIN_SET);
 944              		.loc 1 659 0
 945 000e 274D     		ldr	r5, .L83+4
 946 0010 0122     		movs	r2, #1
 947 0012 0821     		movs	r1, #8
 948 0014 2846     		mov	r0, r5
 949              	.LVL87:
 950 0016 FFF7FEFF 		bl	HAL_GPIO_WritePin
 951              	.LVL88:
 660:Src/main.c    ****     HAL_GPIO_WritePin(LED3_GPIO_Port, LED3_Pin, GPIO_PIN_SET);
 952              		.loc 1 660 0
 953 001a 0122     		movs	r2, #1
 954 001c 1021     		movs	r1, #16
 955 001e 2846     		mov	r0, r5
 956 0020 FFF7FEFF 		bl	HAL_GPIO_WritePin
 957              	.LVL89:
 661:Src/main.c    ****   }
 958              		.loc 1 661 0
 959 0024 0122     		movs	r2, #1
 960 0026 2021     		movs	r1, #32
 961 0028 2846     		mov	r0, r5
 962 002a FFF7FEFF 		bl	HAL_GPIO_WritePin
 963              	.LVL90:
 964              	.L78:
 663:Src/main.c    ****   {
 965              		.loc 1 663 0
 966 002e A4F1C803 		sub	r3, r4, #200
 967 0032 632B     		cmp	r3, #99
 968 0034 0FD8     		bhi	.L79
 665:Src/main.c    ****     HAL_GPIO_WritePin(LED2_GPIO_Port, LED2_Pin, GPIO_PIN_SET);
 969              		.loc 1 665 0
 970 0036 1D4D     		ldr	r5, .L83+4
 971 0038 0122     		movs	r2, #1
 972 003a 0821     		movs	r1, #8
 973 003c 2846     		mov	r0, r5
ARM GAS  /tmp/cc9IUS8A.s 			page 33


 974 003e FFF7FEFF 		bl	HAL_GPIO_WritePin
 975              	.LVL91:
 666:Src/main.c    ****     HAL_GPIO_WritePin(LED3_GPIO_Port, LED3_Pin, GPIO_PIN_RESET);
 976              		.loc 1 666 0
 977 0042 0122     		movs	r2, #1
 978 0044 1021     		movs	r1, #16
 979 0046 2846     		mov	r0, r5
 980 0048 FFF7FEFF 		bl	HAL_GPIO_WritePin
 981              	.LVL92:
 667:Src/main.c    ****   }
 982              		.loc 1 667 0
 983 004c 0022     		movs	r2, #0
 984 004e 2021     		movs	r1, #32
 985 0050 2846     		mov	r0, r5
 986 0052 FFF7FEFF 		bl	HAL_GPIO_WritePin
 987              	.LVL93:
 988              	.L79:
 669:Src/main.c    ****   {
 989              		.loc 1 669 0
 990 0056 A4F59673 		sub	r3, r4, #300
 991 005a 632B     		cmp	r3, #99
 992 005c 0FD8     		bhi	.L80
 671:Src/main.c    ****     HAL_GPIO_WritePin(LED2_GPIO_Port, LED2_Pin, GPIO_PIN_RESET);
 993              		.loc 1 671 0
 994 005e 134D     		ldr	r5, .L83+4
 995 0060 0122     		movs	r2, #1
 996 0062 0821     		movs	r1, #8
 997 0064 2846     		mov	r0, r5
 998 0066 FFF7FEFF 		bl	HAL_GPIO_WritePin
 999              	.LVL94:
 672:Src/main.c    ****     HAL_GPIO_WritePin(LED3_GPIO_Port, LED3_Pin, GPIO_PIN_RESET);
 1000              		.loc 1 672 0
 1001 006a 0022     		movs	r2, #0
 1002 006c 1021     		movs	r1, #16
 1003 006e 2846     		mov	r0, r5
 1004 0070 FFF7FEFF 		bl	HAL_GPIO_WritePin
 1005              	.LVL95:
 673:Src/main.c    ****   }
 1006              		.loc 1 673 0
 1007 0074 0022     		movs	r2, #0
 1008 0076 2021     		movs	r1, #32
 1009 0078 2846     		mov	r0, r5
 1010 007a FFF7FEFF 		bl	HAL_GPIO_WritePin
 1011              	.LVL96:
 1012              	.L80:
 675:Src/main.c    ****   {
 1013              		.loc 1 675 0
 1014 007e B4F5C87F 		cmp	r4, #400
 1015 0082 0FDB     		blt	.L77
 677:Src/main.c    ****     HAL_GPIO_WritePin(LED2_GPIO_Port, LED2_Pin, GPIO_PIN_RESET);
 1016              		.loc 1 677 0
 1017 0084 094C     		ldr	r4, .L83+4
 1018              	.LVL97:
 1019 0086 0022     		movs	r2, #0
 1020 0088 0821     		movs	r1, #8
 1021 008a 2046     		mov	r0, r4
 1022 008c FFF7FEFF 		bl	HAL_GPIO_WritePin
ARM GAS  /tmp/cc9IUS8A.s 			page 34


 1023              	.LVL98:
 678:Src/main.c    ****     HAL_GPIO_WritePin(LED3_GPIO_Port, LED3_Pin, GPIO_PIN_RESET);
 1024              		.loc 1 678 0
 1025 0090 0022     		movs	r2, #0
 1026 0092 1021     		movs	r1, #16
 1027 0094 2046     		mov	r0, r4
 1028 0096 FFF7FEFF 		bl	HAL_GPIO_WritePin
 1029              	.LVL99:
 679:Src/main.c    ****   }
 1030              		.loc 1 679 0
 1031 009a 0022     		movs	r2, #0
 1032 009c 2021     		movs	r1, #32
 1033 009e 2046     		mov	r0, r4
 1034 00a0 FFF7FEFF 		bl	HAL_GPIO_WritePin
 1035              	.LVL100:
 1036              	.L77:
 1037 00a4 38BD     		pop	{r3, r4, r5, pc}
 1038              	.L84:
 1039 00a6 00BF     		.align	2
 1040              	.L83:
 1041 00a8 00000000 		.word	.LANCHOR1
 1042 00ac 00100140 		.word	1073811456
 1043              		.cfi_endproc
 1044              	.LFE84:
 1046              		.section	.text.Setup_Flow_Speed,"ax",%progbits
 1047              		.align	2
 1048              		.global	Setup_Flow_Speed
 1049              		.thumb
 1050              		.thumb_func
 1052              	Setup_Flow_Speed:
 1053              	.LFB85:
 684:Src/main.c    ****   setupCounter = 0xAE;
 1054              		.loc 1 684 0
 1055              		.cfi_startproc
 1056              		@ args = 0, pretend = 0, frame = 0
 1057              		@ frame_needed = 0, uses_anonymous_args = 0
 1058              	.LVL101:
 1059 0000 70B5     		push	{r4, r5, r6, lr}
 1060              	.LCFI9:
 1061              		.cfi_def_cfa_offset 16
 1062              		.cfi_offset 4, -16
 1063              		.cfi_offset 5, -12
 1064              		.cfi_offset 6, -8
 1065              		.cfi_offset 14, -4
 1066 0002 0546     		mov	r5, r0
 1067 0004 0E46     		mov	r6, r1
 685:Src/main.c    ****   uint16_t dutyCycle = 0;
 1068              		.loc 1 685 0
 1069 0006 AE22     		movs	r2, #174
 1070 0008 134B     		ldr	r3, .L95
 1071 000a 1A60     		str	r2, [r3]
 1072              	.LVL102:
 688:Src/main.c    ****   {
 1073              		.loc 1 688 0
 1074 000c 1E28     		cmp	r0, #30
 1075 000e 0FDD     		ble	.L86
 688:Src/main.c    ****   {
ARM GAS  /tmp/cc9IUS8A.s 			page 35


 1076              		.loc 1 688 0 is_stmt 0 discriminator 1
 1077 0010 1D29     		cmp	r1, #29
 1078 0012 09DD     		ble	.L92
 1079 0014 0CE0     		b	.L86
 1080              	.LVL103:
 1081              	.L88:
 693:Src/main.c    ****       __HAL_TIM_SET_COMPARE(&htim3, TIM_CHANNEL_2, dutyCycle);
 1082              		.loc 1 693 0 is_stmt 1
 1083 0016 3234     		adds	r4, r4, #50
 1084              	.LVL104:
 1085 0018 A4B2     		uxth	r4, r4
 1086              	.LVL105:
 694:Src/main.c    ****       osDelay(5);
 1087              		.loc 1 694 0
 1088 001a 104B     		ldr	r3, .L95+4
 1089 001c 1B68     		ldr	r3, [r3]
 1090 001e 9C63     		str	r4, [r3, #56]
 695:Src/main.c    ****     }
 1091              		.loc 1 695 0
 1092 0020 0520     		movs	r0, #5
 1093 0022 FFF7FEFF 		bl	osDelay
 1094              	.LVL106:
 1095 0026 00E0     		b	.L87
 1096              	.LVL107:
 1097              	.L92:
 1098 0028 0024     		movs	r4, #0
 1099              	.LVL108:
 1100              	.L87:
 691:Src/main.c    ****     {
 1101              		.loc 1 691 0
 1102 002a B4F5167F 		cmp	r4, #600
 1103 002e F2D3     		bcc	.L88
 1104              	.LVL109:
 1105              	.L86:
 699:Src/main.c    ****   {
 1106              		.loc 1 699 0
 1107 0030 2D2D     		cmp	r5, #45
 1108 0032 0FDD     		ble	.L85
 699:Src/main.c    ****   {
 1109              		.loc 1 699 0 is_stmt 0 discriminator 1
 1110 0034 132E     		cmp	r6, #19
 1111 0036 09DD     		ble	.L93
 1112 0038 70BD     		pop	{r4, r5, r6, pc}
 1113              	.LVL110:
 1114              	.L91:
 704:Src/main.c    ****       __HAL_TIM_SET_COMPARE(&htim3, TIM_CHANNEL_2, dutyCycle);
 1115              		.loc 1 704 0 is_stmt 1
 1116 003a 3234     		adds	r4, r4, #50
 1117              	.LVL111:
 1118 003c A4B2     		uxth	r4, r4
 1119              	.LVL112:
 705:Src/main.c    ****       osDelay(5);
 1120              		.loc 1 705 0
 1121 003e 074B     		ldr	r3, .L95+4
 1122 0040 1B68     		ldr	r3, [r3]
 1123 0042 9C63     		str	r4, [r3, #56]
 706:Src/main.c    ****     }
ARM GAS  /tmp/cc9IUS8A.s 			page 36


 1124              		.loc 1 706 0
 1125 0044 0520     		movs	r0, #5
 1126 0046 FFF7FEFF 		bl	osDelay
 1127              	.LVL113:
 1128 004a 00E0     		b	.L90
 1129              	.LVL114:
 1130              	.L93:
 1131 004c 0024     		movs	r4, #0
 1132              	.L90:
 1133              	.LVL115:
 702:Src/main.c    ****     {
 1134              		.loc 1 702 0
 1135 004e B4F5487F 		cmp	r4, #800
 1136 0052 F2D3     		bcc	.L91
 1137              	.LVL116:
 1138              	.L85:
 1139 0054 70BD     		pop	{r4, r5, r6, pc}
 1140              	.LVL117:
 1141              	.L96:
 1142 0056 00BF     		.align	2
 1143              	.L95:
 1144 0058 00000000 		.word	.LANCHOR1
 1145 005c 00000000 		.word	htim3
 1146              		.cfi_endproc
 1147              	.LFE85:
 1149              		.section	.text.Func_Task1,"ax",%progbits
 1150              		.align	2
 1151              		.global	Func_Task1
 1152              		.thumb
 1153              		.thumb_func
 1155              	Func_Task1:
 1156              	.LFB87:
 759:Src/main.c    ****         }
 760:Src/main.c    ****         // HAL_GPIO_WritePin(LED1_GPIO_Port, LED1_Pin, GPIO_PIN_SET);
 761:Src/main.c    ****         // HAL_CAN_Transmit(&hcan, 10);
 762:Src/main.c    ****     }
 763:Src/main.c    ****   /* USER CODE END 5 */ 
 764:Src/main.c    **** }
 765:Src/main.c    **** 
 766:Src/main.c    **** /* Func_Task1 function */
 767:Src/main.c    **** void Func_Task1(void const * argument)
 768:Src/main.c    **** {
 1157              		.loc 1 768 0
 1158              		.cfi_startproc
 1159              		@ args = 0, pretend = 0, frame = 40
 1160              		@ frame_needed = 0, uses_anonymous_args = 0
 1161              	.LVL118:
 1162 0000 30B5     		push	{r4, r5, lr}
 1163              	.LCFI10:
 1164              		.cfi_def_cfa_offset 12
 1165              		.cfi_offset 4, -12
 1166              		.cfi_offset 5, -8
 1167              		.cfi_offset 14, -4
 1168 0002 8BB0     		sub	sp, sp, #44
 1169              	.LCFI11:
 1170              		.cfi_def_cfa_offset 56
 769:Src/main.c    ****   /* USER CODE BEGIN Func_Task1 */
ARM GAS  /tmp/cc9IUS8A.s 			page 37


 770:Src/main.c    ****     /* Infinite loop */
 771:Src/main.c    ****     flag = 0;
 1171              		.loc 1 771 0
 1172 0004 0022     		movs	r2, #0
 1173 0006 AD4B     		ldr	r3, .L115
 1174 0008 1A60     		str	r2, [r3]
 772:Src/main.c    **** 
 773:Src/main.c    ****     char str1[8];
 774:Src/main.c    ****     char str2[8];
 775:Src/main.c    **** 
 776:Src/main.c    ****     char user_str[24];
 777:Src/main.c    ****     char uart_str[8];
 778:Src/main.c    ****     
 779:Src/main.c    ****     int temperature, humidity, Light, visibility, Rainfall, Flow, speed,Icing;
 780:Src/main.c    **** 
 781:Src/main.c    ****     HAL_UART_Transmit(&huart2,"CAN_RX", 6, 10);
 1175              		.loc 1 781 0
 1176 000a 0A23     		movs	r3, #10
 1177 000c 0622     		movs	r2, #6
 1178 000e AC49     		ldr	r1, .L115+4
 1179 0010 AC48     		ldr	r0, .L115+8
 1180              	.LVL119:
 1181 0012 FFF7FEFF 		bl	HAL_UART_Transmit
 1182              	.LVL120:
 1183              	.L113:
 782:Src/main.c    **** 
 783:Src/main.c    ****     for(;;)
 784:Src/main.c    ****     {
 785:Src/main.c    ****       // osDelay(1);
 786:Src/main.c    ****       if (flag == 1)
 1184              		.loc 1 786 0
 1185 0016 A94B     		ldr	r3, .L115
 1186 0018 1B68     		ldr	r3, [r3]
 1187 001a 012B     		cmp	r3, #1
 1188 001c 40F04881 		bne	.L98
 787:Src/main.c    **** 	  {
 788:Src/main.c    **** 		globalCounter = 0x0C;    // Êä•Âëä0x0CÊÑèÂë≥CANÂè£Êé•Êî∂Âà∞‰∫Ü1‰∏™PÁöÑÊï∞ÊçÆ
 1189              		.loc 1 788 0
 1190 0020 0C22     		movs	r2, #12
 1191 0022 A94B     		ldr	r3, .L115+12
 1192 0024 1A60     		str	r2, [r3]
 789:Src/main.c    **** 
 790:Src/main.c    ****                 HAL_GPIO_WritePin(C_GPIO_GPIO_Port, C_GPIO_Pin, GPIO_PIN_SET);
 1193              		.loc 1 790 0
 1194 0026 A94C     		ldr	r4, .L115+16
 1195 0028 0122     		movs	r2, #1
 1196 002a 4FF48041 		mov	r1, #16384
 1197 002e 2046     		mov	r0, r4
 1198 0030 FFF7FEFF 		bl	HAL_GPIO_WritePin
 1199              	.LVL121:
 791:Src/main.c    ****                 osDelay(1);
 1200              		.loc 1 791 0
 1201 0034 0120     		movs	r0, #1
 1202 0036 FFF7FEFF 		bl	osDelay
 1203              	.LVL122:
 792:Src/main.c    ****                 HAL_GPIO_WritePin(C_GPIO_GPIO_Port, C_GPIO_Pin, GPIO_PIN_RESET);
 1204              		.loc 1 792 0
ARM GAS  /tmp/cc9IUS8A.s 			page 38


 1205 003a 0022     		movs	r2, #0
 1206 003c 4FF48041 		mov	r1, #16384
 1207 0040 2046     		mov	r0, r4
 1208 0042 FFF7FEFF 		bl	HAL_GPIO_WritePin
 1209              	.LVL123:
 793:Src/main.c    ****                 
 794:Src/main.c    **** 		flag = 0;
 1210              		.loc 1 794 0
 1211 0046 0022     		movs	r2, #0
 1212 0048 9C4B     		ldr	r3, .L115
 1213 004a 1A60     		str	r2, [r3]
 795:Src/main.c    **** 		HAL_UART_Transmit(&huart2, "\r\nOK\r\n", 6, 10);
 1214              		.loc 1 795 0
 1215 004c 0A23     		movs	r3, #10
 1216 004e 0622     		movs	r2, #6
 1217 0050 9F49     		ldr	r1, .L115+20
 1218 0052 9C48     		ldr	r0, .L115+8
 1219 0054 FFF7FEFF 		bl	HAL_UART_Transmit
 1220              	.LVL124:
 796:Src/main.c    **** 		
 797:Src/main.c    **** 		if ((RxMessage.Data[0] == 9 && RxMessage.Data[1] == 8) || (RxMessage.Data[0] == 1 && RxMessage.Da
 1221              		.loc 1 797 0
 1222 0058 9E4B     		ldr	r3, .L115+24
 1223 005a 9B8A     		ldrh	r3, [r3, #20]
 1224 005c 40F60902 		movw	r2, #2057
 1225 0060 9342     		cmp	r3, r2
 1226 0062 03D0     		beq	.L99
 1227              		.loc 1 797 0 is_stmt 0 discriminator 1
 1228 0064 40F20122 		movw	r2, #513
 1229 0068 9342     		cmp	r3, r2
 1230 006a 19D1     		bne	.L100
 1231              	.L99:
 798:Src/main.c    **** 		{
 799:Src/main.c    **** 		  sprintf(str1, "%d", RxMessage.Data[0]);
 1232              		.loc 1 799 0 is_stmt 1
 1233 006c 994D     		ldr	r5, .L115+24
 1234 006e 9A4C     		ldr	r4, .L115+28
 1235 0070 2A7D     		ldrb	r2, [r5, #20]	@ zero_extendqisi2
 1236 0072 2146     		mov	r1, r4
 1237 0074 08A8     		add	r0, sp, #32
 1238 0076 FFF7FEFF 		bl	sprintf
 1239              	.LVL125:
 800:Src/main.c    **** 		  sprintf(str2, "%d", RxMessage.Data[1]);
 1240              		.loc 1 800 0
 1241 007a 6A7D     		ldrb	r2, [r5, #21]	@ zero_extendqisi2
 1242 007c 2146     		mov	r1, r4
 1243 007e 06A8     		add	r0, sp, #24
 1244 0080 FFF7FEFF 		bl	sprintf
 1245              	.LVL126:
 801:Src/main.c    **** 		  // if (RxMessage.Data[0] = 0xAB)
 802:Src/main.c    **** 		  //     HAL_UART_Transmit(&huart1, "AB", 2, 10);
 803:Src/main.c    **** 		  HAL_UART_Transmit(&huart2, str1, 8, 10);
 1246              		.loc 1 803 0
 1247 0084 8F4C     		ldr	r4, .L115+8
 1248 0086 0A23     		movs	r3, #10
 1249 0088 0822     		movs	r2, #8
 1250 008a 08A9     		add	r1, sp, #32
ARM GAS  /tmp/cc9IUS8A.s 			page 39


 1251 008c 2046     		mov	r0, r4
 1252 008e FFF7FEFF 		bl	HAL_UART_Transmit
 1253              	.LVL127:
 804:Src/main.c    **** 		  HAL_UART_Transmit(&huart2, str2, 8, 10);
 1254              		.loc 1 804 0
 1255 0092 0A23     		movs	r3, #10
 1256 0094 0822     		movs	r2, #8
 1257 0096 06A9     		add	r1, sp, #24
 1258 0098 2046     		mov	r0, r4
 1259 009a FFF7FEFF 		bl	HAL_UART_Transmit
 1260              	.LVL128:
 1261 009e 07E1     		b	.L98
 1262              	.L100:
 805:Src/main.c    **** 		}
 806:Src/main.c    **** 		else
 807:Src/main.c    **** 		{
 808:Src/main.c    **** 		  HAL_UART_Transmit(&huart2,"\r\nRX SensorOK\r\n", 15, 10);
 1263              		.loc 1 808 0
 1264 00a0 0A23     		movs	r3, #10
 1265 00a2 0F22     		movs	r2, #15
 1266 00a4 8D49     		ldr	r1, .L115+32
 1267 00a6 8748     		ldr	r0, .L115+8
 1268 00a8 FFF7FEFF 		bl	HAL_UART_Transmit
 1269              	.LVL129:
 1270              	.LBB5:
 809:Src/main.c    **** 		  for (int p = 0;p < 8;p++)
 1271              		.loc 1 809 0
 1272 00ac 0024     		movs	r4, #0
 1273 00ae 0DE0     		b	.L101
 1274              	.LVL130:
 1275              	.L102:
 810:Src/main.c    **** 		  {
 811:Src/main.c    **** 		    sprintf(str1, "%c", RxMessage.Data[p]);
 1276              		.loc 1 811 0 discriminator 3
 1277 00b0 884B     		ldr	r3, .L115+24
 1278 00b2 2344     		add	r3, r3, r4
 1279 00b4 1A7D     		ldrb	r2, [r3, #20]	@ zero_extendqisi2
 1280 00b6 8A49     		ldr	r1, .L115+36
 1281 00b8 08A8     		add	r0, sp, #32
 1282 00ba FFF7FEFF 		bl	sprintf
 1283              	.LVL131:
 812:Src/main.c    **** 		    HAL_UART_Transmit(&huart2, str1, 8, 10);
 1284              		.loc 1 812 0 discriminator 3
 1285 00be 0A23     		movs	r3, #10
 1286 00c0 0822     		movs	r2, #8
 1287 00c2 08A9     		add	r1, sp, #32
 1288 00c4 7F48     		ldr	r0, .L115+8
 1289 00c6 FFF7FEFF 		bl	HAL_UART_Transmit
 1290              	.LVL132:
 809:Src/main.c    **** 		  for (int p = 0;p < 8;p++)
 1291              		.loc 1 809 0 discriminator 3
 1292 00ca 0134     		adds	r4, r4, #1
 1293              	.LVL133:
 1294              	.L101:
 809:Src/main.c    **** 		  for (int p = 0;p < 8;p++)
 1295              		.loc 1 809 0 is_stmt 0 discriminator 1
 1296 00cc 072C     		cmp	r4, #7
ARM GAS  /tmp/cc9IUS8A.s 			page 40


 1297 00ce EFDD     		ble	.L102
 1298              	.LBE5:
 813:Src/main.c    **** 		  }
 814:Src/main.c    **** 
 815:Src/main.c    **** 		  if (RxMessage.Data[2] == 'T')        // 18T30H05P
 1299              		.loc 1 815 0 is_stmt 1
 1300 00d0 804B     		ldr	r3, .L115+24
 1301 00d2 9B7D     		ldrb	r3, [r3, #22]	@ zero_extendqisi2
 1302 00d4 542B     		cmp	r3, #84
 1303 00d6 14D1     		bne	.L103
 816:Src/main.c    **** 		  {
 817:Src/main.c    **** 		    HAL_UART_Transmit(&huart2,"\r\n1P\r\n", 6, 10);
 1304              		.loc 1 817 0
 1305 00d8 0A23     		movs	r3, #10
 1306 00da 0622     		movs	r2, #6
 1307 00dc 8149     		ldr	r1, .L115+40
 1308 00de 7948     		ldr	r0, .L115+8
 1309 00e0 FFF7FEFF 		bl	HAL_UART_Transmit
 1310              	.LVL134:
 1311              	.LBB6:
 818:Src/main.c    **** 		    for (int k = 0;k < 8;k++)
 1312              		.loc 1 818 0
 1313 00e4 0023     		movs	r3, #0
 1314 00e6 07E0     		b	.L104
 1315              	.LVL135:
 1316              	.L105:
 819:Src/main.c    **** 		    {
 820:Src/main.c    **** 		      user_str[k] = RxMessage.Data[k];
 1317              		.loc 1 820 0 discriminator 3
 1318 00e8 7A4A     		ldr	r2, .L115+24
 1319 00ea 1A44     		add	r2, r2, r3
 1320 00ec 117D     		ldrb	r1, [r2, #20]	@ zero_extendqisi2
 1321 00ee 0AAA     		add	r2, sp, #40
 1322 00f0 1A44     		add	r2, r2, r3
 1323 00f2 02F8281C 		strb	r1, [r2, #-40]
 818:Src/main.c    **** 		    for (int k = 0;k < 8;k++)
 1324              		.loc 1 818 0 discriminator 3
 1325 00f6 0133     		adds	r3, r3, #1
 1326              	.LVL136:
 1327              	.L104:
 818:Src/main.c    **** 		    for (int k = 0;k < 8;k++)
 1328              		.loc 1 818 0 is_stmt 0 discriminator 1
 1329 00f8 072B     		cmp	r3, #7
 1330 00fa F5DD     		ble	.L105
 1331              	.LBE6:
 821:Src/main.c    **** 		    }
 822:Src/main.c    **** 		    sensor_flag1 = 8;
 1332              		.loc 1 822 0 is_stmt 1
 1333 00fc 0822     		movs	r2, #8
 1334 00fe 7A4B     		ldr	r3, .L115+44
 1335              	.LVL137:
 1336 0100 1A60     		str	r2, [r3]
 1337              	.L103:
 823:Src/main.c    **** 		  }
 824:Src/main.c    **** 
 825:Src/main.c    **** 		  if (RxMessage.Data[2] == 'L' && sensor_flag1 == 8)        // 00L15V00P
 1338              		.loc 1 825 0
ARM GAS  /tmp/cc9IUS8A.s 			page 41


 1339 0102 744B     		ldr	r3, .L115+24
 1340 0104 9B7D     		ldrb	r3, [r3, #22]	@ zero_extendqisi2
 1341 0106 4C2B     		cmp	r3, #76
 1342 0108 1AD1     		bne	.L106
 1343              		.loc 1 825 0 is_stmt 0 discriminator 1
 1344 010a 774B     		ldr	r3, .L115+44
 1345 010c 1B68     		ldr	r3, [r3]
 1346 010e 082B     		cmp	r3, #8
 1347 0110 16D1     		bne	.L106
 826:Src/main.c    **** 		  {
 827:Src/main.c    **** 		    HAL_UART_Transmit(&huart2,"\r\n2P\r\n", 6, 10);
 1348              		.loc 1 827 0 is_stmt 1
 1349 0112 0A23     		movs	r3, #10
 1350 0114 0622     		movs	r2, #6
 1351 0116 7549     		ldr	r1, .L115+48
 1352 0118 6A48     		ldr	r0, .L115+8
 1353 011a FFF7FEFF 		bl	HAL_UART_Transmit
 1354              	.LVL138:
 1355              	.LBB7:
 828:Src/main.c    **** 		    for (int k = 0;k < 8;k++)
 1356              		.loc 1 828 0
 1357 011e 0023     		movs	r3, #0
 1358 0120 09E0     		b	.L107
 1359              	.LVL139:
 1360              	.L108:
 829:Src/main.c    **** 		    {
 830:Src/main.c    **** 		      user_str[k + 8] = RxMessage.Data[k];
 1361              		.loc 1 830 0 discriminator 3
 1362 0122 03F10802 		add	r2, r3, #8
 1363 0126 6B49     		ldr	r1, .L115+24
 1364 0128 1944     		add	r1, r1, r3
 1365 012a 097D     		ldrb	r1, [r1, #20]	@ zero_extendqisi2
 1366 012c 0AA8     		add	r0, sp, #40
 1367 012e 0244     		add	r2, r2, r0
 1368 0130 02F8281C 		strb	r1, [r2, #-40]
 828:Src/main.c    **** 		    for (int k = 0;k < 8;k++)
 1369              		.loc 1 828 0 discriminator 3
 1370 0134 0133     		adds	r3, r3, #1
 1371              	.LVL140:
 1372              	.L107:
 828:Src/main.c    **** 		    for (int k = 0;k < 8;k++)
 1373              		.loc 1 828 0 is_stmt 0 discriminator 1
 1374 0136 072B     		cmp	r3, #7
 1375 0138 F3DD     		ble	.L108
 1376              	.LBE7:
 831:Src/main.c    **** 		    }
 832:Src/main.c    **** 		    sensor_flag2 = 16;
 1377              		.loc 1 832 0 is_stmt 1
 1378 013a 1022     		movs	r2, #16
 1379 013c 6C4B     		ldr	r3, .L115+52
 1380              	.LVL141:
 1381 013e 1A60     		str	r2, [r3]
 1382              	.L106:
 833:Src/main.c    **** 		  }
 834:Src/main.c    **** 
 835:Src/main.c    **** 		  if (RxMessage.Data[1] == 'R' && sensor_flag2 == 16)        // 0R30F45SP
 1383              		.loc 1 835 0
ARM GAS  /tmp/cc9IUS8A.s 			page 42


 1384 0140 644B     		ldr	r3, .L115+24
 1385 0142 5B7D     		ldrb	r3, [r3, #21]	@ zero_extendqisi2
 1386 0144 522B     		cmp	r3, #82
 1387 0146 40F0B380 		bne	.L98
 1388              		.loc 1 835 0 is_stmt 0 discriminator 1
 1389 014a 694B     		ldr	r3, .L115+52
 1390 014c 1B68     		ldr	r3, [r3]
 1391 014e 102B     		cmp	r3, #16
 1392 0150 40F0AE80 		bne	.L98
 836:Src/main.c    **** 		  {
 837:Src/main.c    **** 		    HAL_UART_Transmit(&huart2,"\r\n3P\r\n", 6, 10);
 1393              		.loc 1 837 0 is_stmt 1
 1394 0154 0A23     		movs	r3, #10
 1395 0156 0622     		movs	r2, #6
 1396 0158 6649     		ldr	r1, .L115+56
 1397 015a 5A48     		ldr	r0, .L115+8
 1398 015c FFF7FEFF 		bl	HAL_UART_Transmit
 1399              	.LVL142:
 1400              	.LBB8:
 838:Src/main.c    **** 		    for (int k = 0;k < 8;k++)
 1401              		.loc 1 838 0
 1402 0160 0023     		movs	r3, #0
 1403 0162 09E0     		b	.L109
 1404              	.LVL143:
 1405              	.L110:
 839:Src/main.c    **** 		    {
 840:Src/main.c    **** 		      user_str[k + 8 + 8] = RxMessage.Data[k];
 1406              		.loc 1 840 0 discriminator 3
 1407 0164 03F11002 		add	r2, r3, #16
 1408 0168 5A49     		ldr	r1, .L115+24
 1409 016a 1944     		add	r1, r1, r3
 1410 016c 097D     		ldrb	r1, [r1, #20]	@ zero_extendqisi2
 1411 016e 0AA8     		add	r0, sp, #40
 1412 0170 0244     		add	r2, r2, r0
 1413 0172 02F8281C 		strb	r1, [r2, #-40]
 838:Src/main.c    **** 		    for (int k = 0;k < 8;k++)
 1414              		.loc 1 838 0 discriminator 3
 1415 0176 0133     		adds	r3, r3, #1
 1416              	.LVL144:
 1417              	.L109:
 838:Src/main.c    **** 		    for (int k = 0;k < 8;k++)
 1418              		.loc 1 838 0 is_stmt 0 discriminator 1
 1419 0178 072B     		cmp	r3, #7
 1420 017a F3DD     		ble	.L110
 1421              	.LBE8:
 841:Src/main.c    **** 		    }
 842:Src/main.c    **** 		    sensor_flag3 = 24;
 1422              		.loc 1 842 0 is_stmt 1
 1423 017c 1822     		movs	r2, #24
 1424 017e 5E4B     		ldr	r3, .L115+60
 1425              	.LVL145:
 1426 0180 1A60     		str	r2, [r3]
 843:Src/main.c    **** 
 844:Src/main.c    ****             temperature = (user_str[0] - 0x30) * 10 + (user_str[1] - 0x30);
 1427              		.loc 1 844 0
 1428 0182 9DF80030 		ldrb	r3, [sp]	@ zero_extendqisi2
 1429 0186 303B     		subs	r3, r3, #48
ARM GAS  /tmp/cc9IUS8A.s 			page 43


 1430 0188 03EB8303 		add	r3, r3, r3, lsl #2
 1431 018c 5900     		lsls	r1, r3, #1
 1432 018e 9DF80130 		ldrb	r3, [sp, #1]	@ zero_extendqisi2
 1433 0192 303B     		subs	r3, r3, #48
 1434              	.LVL146:
 845:Src/main.c    ****             printf("\r\ntemperature:%d",temperature);
 1435              		.loc 1 845 0
 1436 0194 1944     		add	r1, r1, r3
 1437              	.LVL147:
 1438 0196 5948     		ldr	r0, .L115+64
 1439 0198 FFF7FEFF 		bl	printf
 1440              	.LVL148:
 846:Src/main.c    ****   		    
 847:Src/main.c    **** 
 848:Src/main.c    **** 	    	if (user_str[5] == 'H')
 1441              		.loc 1 848 0
 1442 019c 9DF80540 		ldrb	r4, [sp, #5]	@ zero_extendqisi2
 1443              	.LVL149:
 1444 01a0 482C     		cmp	r4, #72
 1445 01a2 0CD1     		bne	.L111
 849:Src/main.c    ****             {
 850:Src/main.c    ****               humidity = (user_str[3] - 0x30) * 10 + (user_str[4] - 0x30);
 1446              		.loc 1 850 0
 1447 01a4 9DF80330 		ldrb	r3, [sp, #3]	@ zero_extendqisi2
 1448 01a8 303B     		subs	r3, r3, #48
 1449 01aa 03EB8303 		add	r3, r3, r3, lsl #2
 1450 01ae 5900     		lsls	r1, r3, #1
 1451 01b0 9DF80430 		ldrb	r3, [sp, #4]	@ zero_extendqisi2
 1452 01b4 303B     		subs	r3, r3, #48
 1453              	.LVL150:
 851:Src/main.c    ****               printf("\r\nhumidity:",humidity);
 1454              		.loc 1 851 0
 1455 01b6 1944     		add	r1, r1, r3
 1456              	.LVL151:
 1457 01b8 5148     		ldr	r0, .L115+68
 1458 01ba FFF7FEFF 		bl	printf
 1459              	.LVL152:
 1460              	.L111:
 852:Src/main.c    ****             }
 853:Src/main.c    ****             if (user_str[5] == 'I')
 1461              		.loc 1 853 0
 1462 01be 492C     		cmp	r4, #73
 1463 01c0 10D1     		bne	.L112
 854:Src/main.c    ****             {  
 855:Src/main.c    ****               Icing = (user_str[3] - 0x30) * 10 + (user_str[4] - 0x30);
 1464              		.loc 1 855 0
 1465 01c2 9DF80330 		ldrb	r3, [sp, #3]	@ zero_extendqisi2
 1466 01c6 303B     		subs	r3, r3, #48
 1467 01c8 03EB8303 		add	r3, r3, r3, lsl #2
 1468 01cc 5C00     		lsls	r4, r3, #1
 1469 01ce 9DF80430 		ldrb	r3, [sp, #4]	@ zero_extendqisi2
 1470 01d2 303B     		subs	r3, r3, #48
 1471 01d4 1C44     		add	r4, r4, r3
 1472              	.LVL153:
 856:Src/main.c    ****               Setup_Icing(Icing);
 1473              		.loc 1 856 0
 1474 01d6 2046     		mov	r0, r4
ARM GAS  /tmp/cc9IUS8A.s 			page 44


 1475 01d8 FFF7FEFF 		bl	Setup_Icing
 1476              	.LVL154:
 857:Src/main.c    ****               printf("\r\nIcing:%d",Icing);
 1477              		.loc 1 857 0
 1478 01dc 2146     		mov	r1, r4
 1479 01de 4948     		ldr	r0, .L115+72
 1480 01e0 FFF7FEFF 		bl	printf
 1481              	.LVL155:
 1482              	.L112:
 858:Src/main.c    ****             }
 859:Src/main.c    **** 
 860:Src/main.c    **** 
 861:Src/main.c    **** 	    	Light = (user_str[6] - 0x30) * 1000 + (user_str[7] - 0x30) * 100 + (user_str[8] - 0x30) * 10 
 1483              		.loc 1 861 0
 1484 01e4 9DF80630 		ldrb	r3, [sp, #6]	@ zero_extendqisi2
 1485 01e8 303B     		subs	r3, r3, #48
 1486 01ea 9DF80720 		ldrb	r2, [sp, #7]	@ zero_extendqisi2
 1487 01ee 303A     		subs	r2, r2, #48
 1488 01f0 6424     		movs	r4, #100
 1489 01f2 04FB02F2 		mul	r2, r4, r2
 1490 01f6 4FF47A71 		mov	r1, #1000
 1491 01fa 01FB0322 		mla	r2, r1, r3, r2
 1492 01fe 9DF80830 		ldrb	r3, [sp, #8]	@ zero_extendqisi2
 1493 0202 303B     		subs	r3, r3, #48
 1494 0204 03EB8303 		add	r3, r3, r3, lsl #2
 1495 0208 5900     		lsls	r1, r3, #1
 1496 020a 0A44     		add	r2, r2, r1
 1497 020c 9DF80930 		ldrb	r3, [sp, #9]	@ zero_extendqisi2
 1498 0210 303B     		subs	r3, r3, #48
 1499 0212 D518     		adds	r5, r2, r3
 1500              	.LVL156:
 862:Src/main.c    **** 		    Setup_Light(Light);
 1501              		.loc 1 862 0
 1502 0214 2846     		mov	r0, r5
 1503 0216 FFF7FEFF 		bl	Setup_Light
 1504              	.LVL157:
 863:Src/main.c    ****             printf("\r\nLight:%d",Light);
 1505              		.loc 1 863 0
 1506 021a 2946     		mov	r1, r5
 1507 021c 3A48     		ldr	r0, .L115+76
 1508 021e FFF7FEFF 		bl	printf
 1509              	.LVL158:
 864:Src/main.c    **** 
 865:Src/main.c    **** 
 866:Src/main.c    **** 	    	visibility = (user_str[11] - 0x30) * 10 + (user_str[12] - 0x30);
 1510              		.loc 1 866 0
 1511 0222 9DF80B30 		ldrb	r3, [sp, #11]	@ zero_extendqisi2
 1512 0226 303B     		subs	r3, r3, #48
 1513 0228 03EB8303 		add	r3, r3, r3, lsl #2
 1514 022c 5D00     		lsls	r5, r3, #1
 1515              	.LVL159:
 1516 022e 9DF80C30 		ldrb	r3, [sp, #12]	@ zero_extendqisi2
 1517 0232 303B     		subs	r3, r3, #48
 1518 0234 1D44     		add	r5, r5, r3
 1519              	.LVL160:
 867:Src/main.c    ****             // if (visibility < 10)
 868:Src/main.c    ****             // {  
ARM GAS  /tmp/cc9IUS8A.s 			page 45


 869:Src/main.c    ****               // HAL_UART_Transmit(&huart2,"\r\nFAT",5,10);    // Âú®ËÆ°ÁÆóÊ≤°ÊúâÈîôËØØÁöÑÊÉÖÂÜµ‰∏ã
 870:Src/main.c    ****             //   printf("\r\nFAT");
 871:Src/main.c    ****             // }
 872:Src/main.c    **** 		    Setup_Visibility(visibility);
 1520              		.loc 1 872 0
 1521 0236 2846     		mov	r0, r5
 1522 0238 FFF7FEFF 		bl	Setup_Visibility
 1523              	.LVL161:
 873:Src/main.c    ****             printf("\r\nvisibility:%d",visibility);
 1524              		.loc 1 873 0
 1525 023c 2946     		mov	r1, r5
 1526 023e 3348     		ldr	r0, .L115+80
 1527 0240 FFF7FEFF 		bl	printf
 1528              	.LVL162:
 874:Src/main.c    **** 
 875:Src/main.c    **** 
 876:Src/main.c    **** 		    Rainfall = (user_str[14] - 0x30) * 100 + (user_str[15] - 0x30) * 10 + + (user_str[16] - 0x30)
 1529              		.loc 1 876 0
 1530 0244 9DF80E20 		ldrb	r2, [sp, #14]	@ zero_extendqisi2
 1531 0248 303A     		subs	r2, r2, #48
 1532 024a 9DF80F30 		ldrb	r3, [sp, #15]	@ zero_extendqisi2
 1533 024e 303B     		subs	r3, r3, #48
 1534 0250 03EB8303 		add	r3, r3, r3, lsl #2
 1535 0254 5900     		lsls	r1, r3, #1
 1536 0256 04FB0214 		mla	r4, r4, r2, r1
 1537              	.LVL163:
 1538 025a 9DF81030 		ldrb	r3, [sp, #16]	@ zero_extendqisi2
 1539 025e 303B     		subs	r3, r3, #48
 1540 0260 1C44     		add	r4, r4, r3
 1541              	.LVL164:
 877:Src/main.c    **** 		    Setup_Rainfall(Rainfall);    // ÈôçÈõ®ÈáèÂè™Ë∞ÉPWM
 1542              		.loc 1 877 0
 1543 0262 2046     		mov	r0, r4
 1544 0264 FFF7FEFF 		bl	Setup_Rainfall
 1545              	.LVL165:
 878:Src/main.c    ****             printf("\r\nRainfall:%d",Rainfall);
 1546              		.loc 1 878 0
 1547 0268 2146     		mov	r1, r4
 1548 026a 2948     		ldr	r0, .L115+84
 1549 026c FFF7FEFF 		bl	printf
 1550              	.LVL166:
 879:Src/main.c    **** 	    	
 880:Src/main.c    **** 
 881:Src/main.c    **** 	    	Flow = (user_str[18] - 0x30) * 10 + (user_str[19] - 0x30);
 1551              		.loc 1 881 0
 1552 0270 9DF81230 		ldrb	r3, [sp, #18]	@ zero_extendqisi2
 1553 0274 303B     		subs	r3, r3, #48
 1554 0276 03EB8303 		add	r3, r3, r3, lsl #2
 1555 027a 5C00     		lsls	r4, r3, #1
 1556              	.LVL167:
 1557 027c 9DF81330 		ldrb	r3, [sp, #19]	@ zero_extendqisi2
 1558 0280 303B     		subs	r3, r3, #48
 1559 0282 1C44     		add	r4, r4, r3
 1560              	.LVL168:
 882:Src/main.c    ****             printf("\r\nFlow:%d",Flow);
 1561              		.loc 1 882 0
 1562 0284 2146     		mov	r1, r4
ARM GAS  /tmp/cc9IUS8A.s 			page 46


 1563 0286 2348     		ldr	r0, .L115+88
 1564 0288 FFF7FEFF 		bl	printf
 1565              	.LVL169:
 883:Src/main.c    **** 	    	
 884:Src/main.c    **** 
 885:Src/main.c    **** 	    	speed = (user_str[21] - 0x30) * 10 + (user_str[22] - 0x30);
 1566              		.loc 1 885 0
 1567 028c 9DF81530 		ldrb	r3, [sp, #21]	@ zero_extendqisi2
 1568 0290 303B     		subs	r3, r3, #48
 1569 0292 03EB8303 		add	r3, r3, r3, lsl #2
 1570 0296 5D00     		lsls	r5, r3, #1
 1571              	.LVL170:
 1572 0298 9DF81630 		ldrb	r3, [sp, #22]	@ zero_extendqisi2
 1573 029c 303B     		subs	r3, r3, #48
 1574 029e 1D44     		add	r5, r5, r3
 1575              	.LVL171:
 886:Src/main.c    ****             printf("\r\nspeed:%d",speed);
 1576              		.loc 1 886 0
 1577 02a0 2946     		mov	r1, r5
 1578 02a2 1D48     		ldr	r0, .L115+92
 1579 02a4 FFF7FEFF 		bl	printf
 1580              	.LVL172:
 887:Src/main.c    **** 		    Setup_Flow_Speed(Flow, speed);
 1581              		.loc 1 887 0
 1582 02a8 2946     		mov	r1, r5
 1583 02aa 2046     		mov	r0, r4
 1584 02ac FFF7FEFF 		bl	Setup_Flow_Speed
 1585              	.LVL173:
 1586              	.L98:
 888:Src/main.c    **** 		  }
 889:Src/main.c    **** 
 890:Src/main.c    **** 		}
 891:Src/main.c    **** 	  }
 892:Src/main.c    **** 
 893:Src/main.c    **** 
 894:Src/main.c    **** 
 895:Src/main.c    ****         HAL_CAN_Receive_IT(&hcan, CAN_FIFO0);    // Âú®USB_LP_CAN1_RX0_IRQHandlerÈáåÁî®HAL_CAN_IRQH
 1587              		.loc 1 895 0
 1588 02b0 0021     		movs	r1, #0
 1589 02b2 1A48     		ldr	r0, .L115+96
 1590 02b4 FFF7FEFF 		bl	HAL_CAN_Receive_IT
 1591              	.LVL174:
 896:Src/main.c    **** 
 897:Src/main.c    **** 
 898:Src/main.c    ****     }
 1592              		.loc 1 898 0
 1593 02b8 ADE6     		b	.L113
 1594              	.L116:
 1595 02ba 00BF     		.align	2
 1596              	.L115:
 1597 02bc 00000000 		.word	flag
 1598 02c0 10000000 		.word	.LC5
 1599 02c4 00000000 		.word	huart2
 1600 02c8 00000000 		.word	.LANCHOR0
 1601 02cc 000C0140 		.word	1073810432
 1602 02d0 18000000 		.word	.LC6
 1603 02d4 00000000 		.word	RxMessage
ARM GAS  /tmp/cc9IUS8A.s 			page 47


 1604 02d8 20000000 		.word	.LC7
 1605 02dc 24000000 		.word	.LC8
 1606 02e0 34000000 		.word	.LC9
 1607 02e4 38000000 		.word	.LC10
 1608 02e8 00000000 		.word	.LANCHOR2
 1609 02ec 40000000 		.word	.LC11
 1610 02f0 00000000 		.word	.LANCHOR3
 1611 02f4 48000000 		.word	.LC12
 1612 02f8 00000000 		.word	.LANCHOR4
 1613 02fc 50000000 		.word	.LC13
 1614 0300 64000000 		.word	.LC14
 1615 0304 70000000 		.word	.LC15
 1616 0308 7C000000 		.word	.LC16
 1617 030c 88000000 		.word	.LC17
 1618 0310 98000000 		.word	.LC18
 1619 0314 A8000000 		.word	.LC19
 1620 0318 B4000000 		.word	.LC20
 1621 031c 00000000 		.word	hcan
 1622              		.cfi_endproc
 1623              	.LFE87:
 1625              		.section	.text.HAL_TIM_PeriodElapsedCallback,"ax",%progbits
 1626              		.align	2
 1627              		.global	HAL_TIM_PeriodElapsedCallback
 1628              		.thumb
 1629              		.thumb_func
 1631              	HAL_TIM_PeriodElapsedCallback:
 1632              	.LFB88:
 899:Src/main.c    ****   /* USER CODE END Func_Task1 */
 900:Src/main.c    **** }
 901:Src/main.c    **** 
 902:Src/main.c    **** /**
 903:Src/main.c    ****   * @brief  Period elapsed callback in non blocking mode
 904:Src/main.c    ****   * @note   This function is called  when TIM4 interrupt took place, inside
 905:Src/main.c    ****   * HAL_TIM_IRQHandler(). It makes a direct call to HAL_IncTick() to increment
 906:Src/main.c    ****   * a global variable "uwTick" used as application time base.
 907:Src/main.c    ****   * @param  htim : TIM handle
 908:Src/main.c    ****   * @retval None
 909:Src/main.c    ****   */
 910:Src/main.c    **** void HAL_TIM_PeriodElapsedCallback(TIM_HandleTypeDef *htim)
 911:Src/main.c    **** {
 1633              		.loc 1 911 0
 1634              		.cfi_startproc
 1635              		@ args = 0, pretend = 0, frame = 0
 1636              		@ frame_needed = 0, uses_anonymous_args = 0
 1637              	.LVL175:
 1638 0000 08B5     		push	{r3, lr}
 1639              	.LCFI12:
 1640              		.cfi_def_cfa_offset 8
 1641              		.cfi_offset 3, -8
 1642              		.cfi_offset 14, -4
 912:Src/main.c    ****   /* USER CODE BEGIN Callback 0 */
 913:Src/main.c    **** 
 914:Src/main.c    ****   /* USER CODE END Callback 0 */
 915:Src/main.c    ****   if (htim->Instance == TIM4) {
 1643              		.loc 1 915 0
 1644 0002 0268     		ldr	r2, [r0]
 1645 0004 084B     		ldr	r3, .L120
ARM GAS  /tmp/cc9IUS8A.s 			page 48


 1646 0006 9A42     		cmp	r2, r3
 1647 0008 0CD1     		bne	.L117
 916:Src/main.c    ****     HAL_IncTick();
 1648              		.loc 1 916 0
 1649 000a FFF7FEFF 		bl	HAL_IncTick
 1650              	.LVL176:
 917:Src/main.c    **** 
 918:Src/main.c    ****     ++TickCounter;
 1651              		.loc 1 918 0
 1652 000e 074A     		ldr	r2, .L120+4
 1653 0010 1368     		ldr	r3, [r2]
 1654 0012 0133     		adds	r3, r3, #1
 1655 0014 1360     		str	r3, [r2]
 919:Src/main.c    ****     if (TickCounter == 50)    // C_GPIOÊòØPB14
 1656              		.loc 1 919 0
 1657 0016 322B     		cmp	r3, #50
 1658 0018 04D1     		bne	.L117
 920:Src/main.c    ****       // HAL_GPIO_WritePin(C_GPIO_GPIO_Port, C_GPIO_Pin, GPIO_PIN_RESET);  // set 0
 921:Src/main.c    ****     
 922:Src/main.c    ****     if (TickCounter == 100)
 1659              		.loc 1 922 0
 1660 001a 642B     		cmp	r3, #100
 1661 001c 02D1     		bne	.L117
 923:Src/main.c    ****     {  
 924:Src/main.c    ****       // HAL_GPIO_WritePin(C_GPIO_GPIO_Port, C_GPIO_Pin, GPIO_PIN_SET);    // set 1
 925:Src/main.c    ****       TickCounter = 0;
 1662              		.loc 1 925 0
 1663 001e 0022     		movs	r2, #0
 1664 0020 024B     		ldr	r3, .L120+4
 1665 0022 1A60     		str	r2, [r3]
 1666              	.L117:
 1667 0024 08BD     		pop	{r3, pc}
 1668              	.L121:
 1669 0026 00BF     		.align	2
 1670              	.L120:
 1671 0028 00080040 		.word	1073743872
 1672 002c 00000000 		.word	.LANCHOR5
 1673              		.cfi_endproc
 1674              	.LFE88:
 1676              		.section	.text._Error_Handler,"ax",%progbits
 1677              		.align	2
 1678              		.global	_Error_Handler
 1679              		.thumb
 1680              		.thumb_func
 1682              	_Error_Handler:
 1683              	.LFB89:
 926:Src/main.c    ****     }
 927:Src/main.c    ****   }
 928:Src/main.c    **** 
 929:Src/main.c    ****   /* USER CODE BEGIN Callback 1 */
 930:Src/main.c    **** 
 931:Src/main.c    ****   /* USER CODE END Callback 1 */
 932:Src/main.c    **** }
 933:Src/main.c    **** 
 934:Src/main.c    **** /**
 935:Src/main.c    ****   * @brief  This function is executed in case of error occurrence.
 936:Src/main.c    ****   * @param  file: The file name as string.
ARM GAS  /tmp/cc9IUS8A.s 			page 49


 937:Src/main.c    ****   * @param  line: The line in file as a number.
 938:Src/main.c    ****   * @retval None
 939:Src/main.c    ****   */
 940:Src/main.c    **** void _Error_Handler(char *file, int line)
 941:Src/main.c    **** {
 1684              		.loc 1 941 0
 1685              		.cfi_startproc
 1686              		@ Volatile: function does not return.
 1687              		@ args = 0, pretend = 0, frame = 0
 1688              		@ frame_needed = 0, uses_anonymous_args = 0
 1689              		@ link register save eliminated.
 1690              	.LVL177:
 1691              	.L123:
 1692 0000 FEE7     		b	.L123
 1693              		.cfi_endproc
 1694              	.LFE89:
 1696 0002 00BF     		.section	.text.MX_CAN_Init,"ax",%progbits
 1697              		.align	2
 1698              		.thumb
 1699              		.thumb_func
 1701              	MX_CAN_Init:
 1702              	.LFB76:
 394:Src/main.c    **** 
 1703              		.loc 1 394 0
 1704              		.cfi_startproc
 1705              		@ args = 0, pretend = 0, frame = 0
 1706              		@ frame_needed = 0, uses_anonymous_args = 0
 394:Src/main.c    **** 
 1707              		.loc 1 394 0
 1708 0000 08B5     		push	{r3, lr}
 1709              	.LCFI13:
 1710              		.cfi_def_cfa_offset 8
 1711              		.cfi_offset 3, -8
 1712              		.cfi_offset 14, -4
 396:Src/main.c    ****   hcan.Init.Prescaler = 18;
 1713              		.loc 1 396 0
 1714 0002 0E48     		ldr	r0, .L127
 1715 0004 0E4B     		ldr	r3, .L127+4
 1716 0006 0360     		str	r3, [r0]
 397:Src/main.c    ****   hcan.Init.Mode = CAN_MODE_NORMAL;
 1717              		.loc 1 397 0
 1718 0008 1223     		movs	r3, #18
 1719 000a 4360     		str	r3, [r0, #4]
 398:Src/main.c    ****   hcan.Init.SJW = CAN_SJW_1TQ;
 1720              		.loc 1 398 0
 1721 000c 0023     		movs	r3, #0
 1722 000e 8360     		str	r3, [r0, #8]
 399:Src/main.c    ****   hcan.Init.BS1 = CAN_BS1_7TQ;
 1723              		.loc 1 399 0
 1724 0010 C360     		str	r3, [r0, #12]
 400:Src/main.c    ****   hcan.Init.BS2 = CAN_BS2_8TQ;
 1725              		.loc 1 400 0
 1726 0012 4FF4C022 		mov	r2, #393216
 1727 0016 0261     		str	r2, [r0, #16]
 401:Src/main.c    ****   hcan.Init.TTCM = DISABLE;
 1728              		.loc 1 401 0
 1729 0018 4FF4E002 		mov	r2, #7340032
ARM GAS  /tmp/cc9IUS8A.s 			page 50


 1730 001c 4261     		str	r2, [r0, #20]
 402:Src/main.c    ****   hcan.Init.ABOM = DISABLE;
 1731              		.loc 1 402 0
 1732 001e 8361     		str	r3, [r0, #24]
 403:Src/main.c    ****   hcan.Init.AWUM = DISABLE;
 1733              		.loc 1 403 0
 1734 0020 C361     		str	r3, [r0, #28]
 404:Src/main.c    ****   hcan.Init.NART = DISABLE;
 1735              		.loc 1 404 0
 1736 0022 0362     		str	r3, [r0, #32]
 405:Src/main.c    ****   hcan.Init.RFLM = DISABLE;
 1737              		.loc 1 405 0
 1738 0024 4362     		str	r3, [r0, #36]
 406:Src/main.c    ****   hcan.Init.TXFP = DISABLE;
 1739              		.loc 1 406 0
 1740 0026 8362     		str	r3, [r0, #40]
 407:Src/main.c    ****   if (HAL_CAN_Init(&hcan) != HAL_OK)
 1741              		.loc 1 407 0
 1742 0028 C362     		str	r3, [r0, #44]
 408:Src/main.c    ****   {
 1743              		.loc 1 408 0
 1744 002a FFF7FEFF 		bl	HAL_CAN_Init
 1745              	.LVL178:
 1746 002e 20B1     		cbz	r0, .L124
 410:Src/main.c    ****   }
 1747              		.loc 1 410 0
 1748 0030 4FF4CD71 		mov	r1, #410
 1749 0034 0348     		ldr	r0, .L127+8
 1750 0036 FFF7FEFF 		bl	_Error_Handler
 1751              	.LVL179:
 1752              	.L124:
 1753 003a 08BD     		pop	{r3, pc}
 1754              	.L128:
 1755              		.align	2
 1756              	.L127:
 1757 003c 00000000 		.word	hcan
 1758 0040 00640040 		.word	1073767424
 1759 0044 C0000000 		.word	.LC21
 1760              		.cfi_endproc
 1761              	.LFE76:
 1763              		.section	.text.MX_USART1_UART_Init,"ax",%progbits
 1764              		.align	2
 1765              		.thumb
 1766              		.thumb_func
 1768              	MX_USART1_UART_Init:
 1769              	.LFB78:
 455:Src/main.c    **** 
 1770              		.loc 1 455 0
 1771              		.cfi_startproc
 1772              		@ args = 0, pretend = 0, frame = 0
 1773              		@ frame_needed = 0, uses_anonymous_args = 0
 1774 0000 08B5     		push	{r3, lr}
 1775              	.LCFI14:
 1776              		.cfi_def_cfa_offset 8
 1777              		.cfi_offset 3, -8
 1778              		.cfi_offset 14, -4
 457:Src/main.c    ****   huart1.Init.BaudRate = 115200;
ARM GAS  /tmp/cc9IUS8A.s 			page 51


 1779              		.loc 1 457 0
 1780 0002 0B48     		ldr	r0, .L132
 1781 0004 0B4B     		ldr	r3, .L132+4
 1782 0006 0360     		str	r3, [r0]
 458:Src/main.c    ****   huart1.Init.WordLength = UART_WORDLENGTH_8B;
 1783              		.loc 1 458 0
 1784 0008 4FF4E133 		mov	r3, #115200
 1785 000c 4360     		str	r3, [r0, #4]
 459:Src/main.c    ****   huart1.Init.StopBits = UART_STOPBITS_1;
 1786              		.loc 1 459 0
 1787 000e 0023     		movs	r3, #0
 1788 0010 8360     		str	r3, [r0, #8]
 460:Src/main.c    ****   huart1.Init.Parity = UART_PARITY_NONE;
 1789              		.loc 1 460 0
 1790 0012 C360     		str	r3, [r0, #12]
 461:Src/main.c    ****   huart1.Init.Mode = UART_MODE_TX_RX;
 1791              		.loc 1 461 0
 1792 0014 0361     		str	r3, [r0, #16]
 462:Src/main.c    ****   huart1.Init.HwFlowCtl = UART_HWCONTROL_NONE;
 1793              		.loc 1 462 0
 1794 0016 0C22     		movs	r2, #12
 1795 0018 4261     		str	r2, [r0, #20]
 463:Src/main.c    ****   huart1.Init.OverSampling = UART_OVERSAMPLING_16;
 1796              		.loc 1 463 0
 1797 001a 8361     		str	r3, [r0, #24]
 464:Src/main.c    ****   if (HAL_UART_Init(&huart1) != HAL_OK)
 1798              		.loc 1 464 0
 1799 001c C361     		str	r3, [r0, #28]
 465:Src/main.c    ****   {
 1800              		.loc 1 465 0
 1801 001e FFF7FEFF 		bl	HAL_UART_Init
 1802              	.LVL180:
 1803 0022 20B1     		cbz	r0, .L129
 467:Src/main.c    ****   }
 1804              		.loc 1 467 0
 1805 0024 40F2D311 		movw	r1, #467
 1806 0028 0348     		ldr	r0, .L132+8
 1807 002a FFF7FEFF 		bl	_Error_Handler
 1808              	.LVL181:
 1809              	.L129:
 1810 002e 08BD     		pop	{r3, pc}
 1811              	.L133:
 1812              		.align	2
 1813              	.L132:
 1814 0030 00000000 		.word	huart1
 1815 0034 00380140 		.word	1073821696
 1816 0038 C0000000 		.word	.LC21
 1817              		.cfi_endproc
 1818              	.LFE78:
 1820              		.section	.text.MX_USART2_UART_Init,"ax",%progbits
 1821              		.align	2
 1822              		.thumb
 1823              		.thumb_func
 1825              	MX_USART2_UART_Init:
 1826              	.LFB79:
 474:Src/main.c    **** 
 1827              		.loc 1 474 0
ARM GAS  /tmp/cc9IUS8A.s 			page 52


 1828              		.cfi_startproc
 1829              		@ args = 0, pretend = 0, frame = 0
 1830              		@ frame_needed = 0, uses_anonymous_args = 0
 1831 0000 08B5     		push	{r3, lr}
 1832              	.LCFI15:
 1833              		.cfi_def_cfa_offset 8
 1834              		.cfi_offset 3, -8
 1835              		.cfi_offset 14, -4
 476:Src/main.c    ****   huart2.Init.BaudRate = 115200;
 1836              		.loc 1 476 0
 1837 0002 0B48     		ldr	r0, .L137
 1838 0004 0B4B     		ldr	r3, .L137+4
 1839 0006 0360     		str	r3, [r0]
 477:Src/main.c    ****   huart2.Init.WordLength = UART_WORDLENGTH_8B;
 1840              		.loc 1 477 0
 1841 0008 4FF4E133 		mov	r3, #115200
 1842 000c 4360     		str	r3, [r0, #4]
 478:Src/main.c    ****   huart2.Init.StopBits = UART_STOPBITS_1;
 1843              		.loc 1 478 0
 1844 000e 0023     		movs	r3, #0
 1845 0010 8360     		str	r3, [r0, #8]
 479:Src/main.c    ****   huart2.Init.Parity = UART_PARITY_NONE;
 1846              		.loc 1 479 0
 1847 0012 C360     		str	r3, [r0, #12]
 480:Src/main.c    ****   huart2.Init.Mode = UART_MODE_TX_RX;
 1848              		.loc 1 480 0
 1849 0014 0361     		str	r3, [r0, #16]
 481:Src/main.c    ****   huart2.Init.HwFlowCtl = UART_HWCONTROL_NONE;
 1850              		.loc 1 481 0
 1851 0016 0C22     		movs	r2, #12
 1852 0018 4261     		str	r2, [r0, #20]
 482:Src/main.c    ****   huart2.Init.OverSampling = UART_OVERSAMPLING_16;
 1853              		.loc 1 482 0
 1854 001a 8361     		str	r3, [r0, #24]
 483:Src/main.c    ****   if (HAL_UART_Init(&huart2) != HAL_OK)
 1855              		.loc 1 483 0
 1856 001c C361     		str	r3, [r0, #28]
 484:Src/main.c    ****   {
 1857              		.loc 1 484 0
 1858 001e FFF7FEFF 		bl	HAL_UART_Init
 1859              	.LVL182:
 1860 0022 20B1     		cbz	r0, .L134
 486:Src/main.c    ****   }
 1861              		.loc 1 486 0
 1862 0024 4FF4F371 		mov	r1, #486
 1863 0028 0348     		ldr	r0, .L137+8
 1864 002a FFF7FEFF 		bl	_Error_Handler
 1865              	.LVL183:
 1866              	.L134:
 1867 002e 08BD     		pop	{r3, pc}
 1868              	.L138:
 1869              		.align	2
 1870              	.L137:
 1871 0030 00000000 		.word	huart2
 1872 0034 00440040 		.word	1073759232
 1873 0038 C0000000 		.word	.LC21
 1874              		.cfi_endproc
ARM GAS  /tmp/cc9IUS8A.s 			page 53


 1875              	.LFE79:
 1877              		.section	.text.MX_TIM3_Init,"ax",%progbits
 1878              		.align	2
 1879              		.thumb
 1880              		.thumb_func
 1882              	MX_TIM3_Init:
 1883              	.LFB77:
 417:Src/main.c    **** 
 1884              		.loc 1 417 0
 1885              		.cfi_startproc
 1886              		@ args = 0, pretend = 0, frame = 40
 1887              		@ frame_needed = 0, uses_anonymous_args = 0
 1888 0000 00B5     		push	{lr}
 1889              	.LCFI16:
 1890              		.cfi_def_cfa_offset 4
 1891              		.cfi_offset 14, -4
 1892 0002 8BB0     		sub	sp, sp, #44
 1893              	.LCFI17:
 1894              		.cfi_def_cfa_offset 48
 422:Src/main.c    ****   htim3.Init.Prescaler = 72-1;
 1895              		.loc 1 422 0
 1896 0004 1C48     		ldr	r0, .L144
 1897 0006 1D4B     		ldr	r3, .L144+4
 1898 0008 0360     		str	r3, [r0]
 423:Src/main.c    ****   htim3.Init.CounterMode = TIM_COUNTERMODE_UP;
 1899              		.loc 1 423 0
 1900 000a 4723     		movs	r3, #71
 1901 000c 4360     		str	r3, [r0, #4]
 424:Src/main.c    ****   htim3.Init.Period = 1000-1;
 1902              		.loc 1 424 0
 1903 000e 0023     		movs	r3, #0
 1904 0010 8360     		str	r3, [r0, #8]
 425:Src/main.c    ****   htim3.Init.ClockDivision = TIM_CLOCKDIVISION_DIV1;
 1905              		.loc 1 425 0
 1906 0012 40F2E732 		movw	r2, #999
 1907 0016 C260     		str	r2, [r0, #12]
 426:Src/main.c    ****   htim3.Init.AutoReloadPreload = TIM_AUTORELOAD_PRELOAD_DISABLE;
 1908              		.loc 1 426 0
 1909 0018 0361     		str	r3, [r0, #16]
 427:Src/main.c    ****   if (HAL_TIM_PWM_Init(&htim3) != HAL_OK)
 1910              		.loc 1 427 0
 1911 001a 8361     		str	r3, [r0, #24]
 428:Src/main.c    ****   {
 1912              		.loc 1 428 0
 1913 001c FFF7FEFF 		bl	HAL_TIM_PWM_Init
 1914              	.LVL184:
 1915 0020 20B1     		cbz	r0, .L140
 430:Src/main.c    ****   }
 1916              		.loc 1 430 0
 1917 0022 4FF4D771 		mov	r1, #430
 1918 0026 1648     		ldr	r0, .L144+8
 1919 0028 FFF7FEFF 		bl	_Error_Handler
 1920              	.LVL185:
 1921              	.L140:
 433:Src/main.c    ****   sMasterConfig.MasterSlaveMode = TIM_MASTERSLAVEMODE_DISABLE;
 1922              		.loc 1 433 0
 1923 002c 0023     		movs	r3, #0
ARM GAS  /tmp/cc9IUS8A.s 			page 54


 1924 002e 0893     		str	r3, [sp, #32]
 434:Src/main.c    ****   if (HAL_TIMEx_MasterConfigSynchronization(&htim3, &sMasterConfig) != HAL_OK)
 1925              		.loc 1 434 0
 1926 0030 0993     		str	r3, [sp, #36]
 435:Src/main.c    ****   {
 1927              		.loc 1 435 0
 1928 0032 08A9     		add	r1, sp, #32
 1929 0034 1048     		ldr	r0, .L144
 1930 0036 FFF7FEFF 		bl	HAL_TIMEx_MasterConfigSynchronization
 1931              	.LVL186:
 1932 003a 20B1     		cbz	r0, .L141
 437:Src/main.c    ****   }
 1933              		.loc 1 437 0
 1934 003c 40F2B511 		movw	r1, #437
 1935 0040 0F48     		ldr	r0, .L144+8
 1936 0042 FFF7FEFF 		bl	_Error_Handler
 1937              	.LVL187:
 1938              	.L141:
 440:Src/main.c    ****   sConfigOC.Pulse = 0;
 1939              		.loc 1 440 0
 1940 0046 6023     		movs	r3, #96
 1941 0048 0193     		str	r3, [sp, #4]
 441:Src/main.c    ****   sConfigOC.OCPolarity = TIM_OCPOLARITY_LOW;
 1942              		.loc 1 441 0
 1943 004a 0023     		movs	r3, #0
 1944 004c 0293     		str	r3, [sp, #8]
 442:Src/main.c    ****   sConfigOC.OCFastMode = TIM_OCFAST_DISABLE;
 1945              		.loc 1 442 0
 1946 004e 0222     		movs	r2, #2
 1947 0050 0392     		str	r2, [sp, #12]
 443:Src/main.c    ****   if (HAL_TIM_PWM_ConfigChannel(&htim3, &sConfigOC, TIM_CHANNEL_2) != HAL_OK)
 1948              		.loc 1 443 0
 1949 0052 0593     		str	r3, [sp, #20]
 444:Src/main.c    ****   {
 1950              		.loc 1 444 0
 1951 0054 0422     		movs	r2, #4
 1952 0056 0DEB0201 		add	r1, sp, r2
 1953 005a 0748     		ldr	r0, .L144
 1954 005c FFF7FEFF 		bl	HAL_TIM_PWM_ConfigChannel
 1955              	.LVL188:
 1956 0060 20B1     		cbz	r0, .L142
 446:Src/main.c    ****   }
 1957              		.loc 1 446 0
 1958 0062 4FF4DF71 		mov	r1, #446
 1959 0066 0648     		ldr	r0, .L144+8
 1960 0068 FFF7FEFF 		bl	_Error_Handler
 1961              	.LVL189:
 1962              	.L142:
 449:Src/main.c    **** 
 1963              		.loc 1 449 0
 1964 006c 0248     		ldr	r0, .L144
 1965 006e FFF7FEFF 		bl	HAL_TIM_MspPostInit
 1966              	.LVL190:
 451:Src/main.c    **** 
 1967              		.loc 1 451 0
 1968 0072 0BB0     		add	sp, sp, #44
 1969              	.LCFI18:
ARM GAS  /tmp/cc9IUS8A.s 			page 55


 1970              		.cfi_def_cfa_offset 4
 1971              		@ sp needed
 1972 0074 5DF804FB 		ldr	pc, [sp], #4
 1973              	.L145:
 1974              		.align	2
 1975              	.L144:
 1976 0078 00000000 		.word	htim3
 1977 007c 00040040 		.word	1073742848
 1978 0080 C0000000 		.word	.LC21
 1979              		.cfi_endproc
 1980              	.LFE77:
 1982              		.section	.text.SystemClock_Config,"ax",%progbits
 1983              		.align	2
 1984              		.global	SystemClock_Config
 1985              		.thumb
 1986              		.thumb_func
 1988              	SystemClock_Config:
 1989              	.LFB75:
 347:Src/main.c    **** 
 1990              		.loc 1 347 0
 1991              		.cfi_startproc
 1992              		@ args = 0, pretend = 0, frame = 64
 1993              		@ frame_needed = 0, uses_anonymous_args = 0
 1994 0000 00B5     		push	{lr}
 1995              	.LCFI19:
 1996              		.cfi_def_cfa_offset 4
 1997              		.cfi_offset 14, -4
 1998 0002 91B0     		sub	sp, sp, #68
 1999              	.LCFI20:
 2000              		.cfi_def_cfa_offset 72
 354:Src/main.c    ****   RCC_OscInitStruct.HSEState = RCC_HSE_ON;
 2001              		.loc 1 354 0
 2002 0004 0122     		movs	r2, #1
 2003 0006 0692     		str	r2, [sp, #24]
 355:Src/main.c    ****   RCC_OscInitStruct.HSEPredivValue = RCC_HSE_PREDIV_DIV1;
 2004              		.loc 1 355 0
 2005 0008 4FF48033 		mov	r3, #65536
 2006 000c 0793     		str	r3, [sp, #28]
 356:Src/main.c    ****   RCC_OscInitStruct.HSIState = RCC_HSI_ON;
 2007              		.loc 1 356 0
 2008 000e 0021     		movs	r1, #0
 2009 0010 0891     		str	r1, [sp, #32]
 357:Src/main.c    ****   RCC_OscInitStruct.PLL.PLLState = RCC_PLL_ON;
 2010              		.loc 1 357 0
 2011 0012 0A92     		str	r2, [sp, #40]
 358:Src/main.c    ****   RCC_OscInitStruct.PLL.PLLSource = RCC_PLLSOURCE_HSE;
 2012              		.loc 1 358 0
 2013 0014 0222     		movs	r2, #2
 2014 0016 0D92     		str	r2, [sp, #52]
 359:Src/main.c    ****   RCC_OscInitStruct.PLL.PLLMUL = RCC_PLL_MUL9;
 2015              		.loc 1 359 0
 2016 0018 0E93     		str	r3, [sp, #56]
 360:Src/main.c    ****   if (HAL_RCC_OscConfig(&RCC_OscInitStruct) != HAL_OK)
 2017              		.loc 1 360 0
 2018 001a 4FF4E013 		mov	r3, #1835008
 2019 001e 0F93     		str	r3, [sp, #60]
 361:Src/main.c    ****   {
ARM GAS  /tmp/cc9IUS8A.s 			page 56


 2020              		.loc 1 361 0
 2021 0020 06A8     		add	r0, sp, #24
 2022 0022 FFF7FEFF 		bl	HAL_RCC_OscConfig
 2023              	.LVL191:
 2024 0026 20B1     		cbz	r0, .L147
 363:Src/main.c    ****   }
 2025              		.loc 1 363 0
 2026 0028 40F26B11 		movw	r1, #363
 2027 002c 1448     		ldr	r0, .L150
 2028 002e FFF7FEFF 		bl	_Error_Handler
 2029              	.LVL192:
 2030              	.L147:
 368:Src/main.c    ****                               |RCC_CLOCKTYPE_PCLK1|RCC_CLOCKTYPE_PCLK2;
 2031              		.loc 1 368 0
 2032 0032 0F23     		movs	r3, #15
 2033 0034 0193     		str	r3, [sp, #4]
 370:Src/main.c    ****   RCC_ClkInitStruct.AHBCLKDivider = RCC_SYSCLK_DIV1;
 2034              		.loc 1 370 0
 2035 0036 0221     		movs	r1, #2
 2036 0038 0291     		str	r1, [sp, #8]
 371:Src/main.c    ****   RCC_ClkInitStruct.APB1CLKDivider = RCC_HCLK_DIV2;
 2037              		.loc 1 371 0
 2038 003a 0023     		movs	r3, #0
 2039 003c 0393     		str	r3, [sp, #12]
 372:Src/main.c    ****   RCC_ClkInitStruct.APB2CLKDivider = RCC_HCLK_DIV1;
 2040              		.loc 1 372 0
 2041 003e 4FF48062 		mov	r2, #1024
 2042 0042 0492     		str	r2, [sp, #16]
 373:Src/main.c    **** 
 2043              		.loc 1 373 0
 2044 0044 0593     		str	r3, [sp, #20]
 375:Src/main.c    ****   {
 2045              		.loc 1 375 0
 2046 0046 01A8     		add	r0, sp, #4
 2047 0048 FFF7FEFF 		bl	HAL_RCC_ClockConfig
 2048              	.LVL193:
 2049 004c 20B1     		cbz	r0, .L148
 377:Src/main.c    ****   }
 2050              		.loc 1 377 0
 2051 004e 40F27911 		movw	r1, #377
 2052 0052 0B48     		ldr	r0, .L150
 2053 0054 FFF7FEFF 		bl	_Error_Handler
 2054              	.LVL194:
 2055              	.L148:
 382:Src/main.c    **** 
 2056              		.loc 1 382 0
 2057 0058 FFF7FEFF 		bl	HAL_RCC_GetHCLKFreq
 2058              	.LVL195:
 2059 005c 094B     		ldr	r3, .L150+4
 2060 005e A3FB0030 		umull	r3, r0, r3, r0
 2061 0062 8009     		lsrs	r0, r0, #6
 2062 0064 FFF7FEFF 		bl	HAL_SYSTICK_Config
 2063              	.LVL196:
 386:Src/main.c    **** 
 2064              		.loc 1 386 0
 2065 0068 0420     		movs	r0, #4
 2066 006a FFF7FEFF 		bl	HAL_SYSTICK_CLKSourceConfig
ARM GAS  /tmp/cc9IUS8A.s 			page 57


 2067              	.LVL197:
 389:Src/main.c    **** }
 2068              		.loc 1 389 0
 2069 006e 0022     		movs	r2, #0
 2070 0070 0F21     		movs	r1, #15
 2071 0072 4FF0FF30 		mov	r0, #-1
 2072 0076 FFF7FEFF 		bl	HAL_NVIC_SetPriority
 2073              	.LVL198:
 390:Src/main.c    **** 
 2074              		.loc 1 390 0
 2075 007a 11B0     		add	sp, sp, #68
 2076              	.LCFI21:
 2077              		.cfi_def_cfa_offset 4
 2078              		@ sp needed
 2079 007c 5DF804FB 		ldr	pc, [sp], #4
 2080              	.L151:
 2081              		.align	2
 2082              	.L150:
 2083 0080 C0000000 		.word	.LC21
 2084 0084 D34D6210 		.word	274877907
 2085              		.cfi_endproc
 2086              	.LFE75:
 2088              		.section	.text.main,"ax",%progbits
 2089              		.align	2
 2090              		.global	main
 2091              		.thumb
 2092              		.thumb_func
 2094              	main:
 2095              	.LFB74:
 258:Src/main.c    ****   /* USER CODE BEGIN 1 */
 2096              		.loc 1 258 0
 2097              		.cfi_startproc
 2098              		@ args = 0, pretend = 0, frame = 40
 2099              		@ frame_needed = 0, uses_anonymous_args = 0
 2100 0000 70B5     		push	{r4, r5, r6, lr}
 2101              	.LCFI22:
 2102              		.cfi_def_cfa_offset 16
 2103              		.cfi_offset 4, -16
 2104              		.cfi_offset 5, -12
 2105              		.cfi_offset 6, -8
 2106              		.cfi_offset 14, -4
 2107 0002 8AB0     		sub	sp, sp, #40
 2108              	.LCFI23:
 2109              		.cfi_def_cfa_offset 56
 266:Src/main.c    **** 
 2110              		.loc 1 266 0
 2111 0004 FFF7FEFF 		bl	HAL_Init
 2112              	.LVL199:
 273:Src/main.c    **** 
 2113              		.loc 1 273 0
 2114 0008 FFF7FEFF 		bl	SystemClock_Config
 2115              	.LVL200:
 280:Src/main.c    ****   MX_CAN_Init();
 2116              		.loc 1 280 0
 2117 000c FFF7FEFF 		bl	MX_GPIO_Init
 2118              	.LVL201:
 281:Src/main.c    ****   MX_USART1_UART_Init();
ARM GAS  /tmp/cc9IUS8A.s 			page 58


 2119              		.loc 1 281 0
 2120 0010 FFF7FEFF 		bl	MX_CAN_Init
 2121              	.LVL202:
 282:Src/main.c    ****   MX_USART2_UART_Init();
 2122              		.loc 1 282 0
 2123 0014 FFF7FEFF 		bl	MX_USART1_UART_Init
 2124              	.LVL203:
 283:Src/main.c    ****   MX_TIM3_Init();
 2125              		.loc 1 283 0
 2126 0018 FFF7FEFF 		bl	MX_USART2_UART_Init
 2127              	.LVL204:
 284:Src/main.c    **** 
 2128              		.loc 1 284 0
 2129 001c FFF7FEFF 		bl	MX_TIM3_Init
 2130              	.LVL205:
 287:Src/main.c    ****   configure_watchpoint();
 2131              		.loc 1 287 0
 2132 0020 FFF7FEFF 		bl	configure_tracing
 2133              	.LVL206:
 288:Src/main.c    ****   /* USER CODE BEGIN 2 */
 2134              		.loc 1 288 0
 2135 0024 FFF7FEFF 		bl	configure_watchpoint
 2136              	.LVL207:
 307:Src/main.c    ****   Task0Handle = osThreadCreate(osThread(Task0), NULL);
 2137              		.loc 1 307 0
 2138 0028 0D4C     		ldr	r4, .L155
 2139 002a 05AD     		add	r5, sp, #20
 2140 002c 2646     		mov	r6, r4
 2141 002e 0FCE     		ldmia	r6!, {r0, r1, r2, r3}
 2142 0030 0FC5     		stmia	r5!, {r0, r1, r2, r3}
 2143 0032 3368     		ldr	r3, [r6]
 2144 0034 2B60     		str	r3, [r5]
 308:Src/main.c    **** 
 2145              		.loc 1 308 0
 2146 0036 0021     		movs	r1, #0
 2147 0038 05A8     		add	r0, sp, #20
 2148 003a FFF7FEFF 		bl	osThreadCreate
 2149              	.LVL208:
 2150 003e 094B     		ldr	r3, .L155+4
 2151 0040 1860     		str	r0, [r3]
 311:Src/main.c    ****   Task1Handle = osThreadCreate(osThread(Task1), NULL);
 2152              		.loc 1 311 0
 2153 0042 6D46     		mov	r5, sp
 2154 0044 1434     		adds	r4, r4, #20
 2155 0046 0FCC     		ldmia	r4!, {r0, r1, r2, r3}
 2156 0048 0FC5     		stmia	r5!, {r0, r1, r2, r3}
 2157 004a 2368     		ldr	r3, [r4]
 2158 004c 2B60     		str	r3, [r5]
 312:Src/main.c    **** 
 2159              		.loc 1 312 0
 2160 004e 0021     		movs	r1, #0
 2161 0050 6846     		mov	r0, sp
 2162 0052 FFF7FEFF 		bl	osThreadCreate
 2163              	.LVL209:
 2164 0056 044B     		ldr	r3, .L155+8
 2165 0058 1860     		str	r0, [r3]
 324:Src/main.c    ****   
ARM GAS  /tmp/cc9IUS8A.s 			page 59


 2166              		.loc 1 324 0
 2167 005a FFF7FEFF 		bl	osKernelStart
 2168              	.LVL210:
 2169              	.L153:
 2170 005e FEE7     		b	.L153
 2171              	.L156:
 2172              		.align	2
 2173              	.L155:
 2174 0060 00000000 		.word	.LANCHOR6
 2175 0064 00000000 		.word	Task0Handle
 2176 0068 00000000 		.word	Task1Handle
 2177              		.cfi_endproc
 2178              	.LFE74:
 2180              		.global	setupCounter
 2181              		.global	globalCounter
 2182              		.comm	flag,4,4
 2183              		.global	sensor_flag3
 2184              		.global	sensor_flag2
 2185              		.global	sensor_flag1
 2186              		.global	TickCounter
 2187              		.comm	RxMessage,36,4
 2188              		.comm	TxMessage,28,4
 2189              		.comm	sFliterConfig,40,4
 2190              		.comm	Task1Handle,4,4
 2191              		.comm	Task0Handle,4,4
 2192              		.comm	huart2,64,4
 2193              		.comm	huart1,64,4
 2194              		.comm	htim3,64,4
 2195              		.comm	hcan,68,4
 2196              		.section	.rodata
 2197              		.align	2
 2198              		.set	.LANCHOR6,. + 0
 2199              	.LC22:
 2200 0000 D4000000 		.word	.LC0
 2201 0004 00000000 		.word	Func_Task0
 2202 0008 0000     		.short	0
 2203 000a 0000     		.space	2
 2204 000c 00000000 		.word	0
 2205 0010 00010000 		.word	256
 2206              	.LC23:
 2207 0014 CC000000 		.word	.LC2
 2208 0018 00000000 		.word	Func_Task1
 2209 001c 0000     		.short	0
 2210 001e 0000     		.space	2
 2211 0020 00000000 		.word	0
 2212 0024 00010000 		.word	256
 2213              		.section	.bss.sensor_flag3,"aw",%nobits
 2214              		.align	2
 2215              		.set	.LANCHOR4,. + 0
 2218              	sensor_flag3:
 2219 0000 00000000 		.space	4
 2220              		.section	.bss.TickCounter,"aw",%nobits
 2221              		.align	2
 2222              		.set	.LANCHOR5,. + 0
 2225              	TickCounter:
 2226 0000 00000000 		.space	4
 2227              		.section	.rodata.str1.4,"aMS",%progbits,1
ARM GAS  /tmp/cc9IUS8A.s 			page 60


 2228              		.align	2
 2229              	.LC4:
 2230 0000 0D0A4675 		.ascii	"\015\012Func_Task0\015\012\000"
 2230      6E635F54 
 2230      61736B30 
 2230      0D0A00
 2231 000f 00       		.space	1
 2232              	.LC5:
 2233 0010 43414E5F 		.ascii	"CAN_RX\000"
 2233      525800
 2234 0017 00       		.space	1
 2235              	.LC6:
 2236 0018 0D0A4F4B 		.ascii	"\015\012OK\015\012\000"
 2236      0D0A00
 2237 001f 00       		.space	1
 2238              	.LC7:
 2239 0020 256400   		.ascii	"%d\000"
 2240 0023 00       		.space	1
 2241              	.LC8:
 2242 0024 0D0A5258 		.ascii	"\015\012RX SensorOK\015\012\000"
 2242      2053656E 
 2242      736F724F 
 2242      4B0D0A00 
 2243              	.LC9:
 2244 0034 256300   		.ascii	"%c\000"
 2245 0037 00       		.space	1
 2246              	.LC10:
 2247 0038 0D0A3150 		.ascii	"\015\0121P\015\012\000"
 2247      0D0A00
 2248 003f 00       		.space	1
 2249              	.LC11:
 2250 0040 0D0A3250 		.ascii	"\015\0122P\015\012\000"
 2250      0D0A00
 2251 0047 00       		.space	1
 2252              	.LC12:
 2253 0048 0D0A3350 		.ascii	"\015\0123P\015\012\000"
 2253      0D0A00
 2254 004f 00       		.space	1
 2255              	.LC13:
 2256 0050 0D0A7465 		.ascii	"\015\012temperature:%d\000"
 2256      6D706572 
 2256      61747572 
 2256      653A2564 
 2256      00
 2257 0061 000000   		.space	3
 2258              	.LC14:
 2259 0064 0D0A6875 		.ascii	"\015\012humidity:\000"
 2259      6D696469 
 2259      74793A00 
 2260              	.LC15:
 2261 0070 0D0A4963 		.ascii	"\015\012Icing:%d\000"
 2261      696E673A 
 2261      256400
 2262 007b 00       		.space	1
 2263              	.LC16:
 2264 007c 0D0A4C69 		.ascii	"\015\012Light:%d\000"
 2264      6768743A 
ARM GAS  /tmp/cc9IUS8A.s 			page 61


 2264      256400
 2265 0087 00       		.space	1
 2266              	.LC17:
 2267 0088 0D0A7669 		.ascii	"\015\012visibility:%d\000"
 2267      73696269 
 2267      6C697479 
 2267      3A256400 
 2268              	.LC18:
 2269 0098 0D0A5261 		.ascii	"\015\012Rainfall:%d\000"
 2269      696E6661 
 2269      6C6C3A25 
 2269      6400
 2270 00a6 0000     		.space	2
 2271              	.LC19:
 2272 00a8 0D0A466C 		.ascii	"\015\012Flow:%d\000"
 2272      6F773A25 
 2272      6400
 2273 00b2 0000     		.space	2
 2274              	.LC20:
 2275 00b4 0D0A7370 		.ascii	"\015\012speed:%d\000"
 2275      6565643A 
 2275      256400
 2276 00bf 00       		.space	1
 2277              	.LC21:
 2278 00c0 5372632F 		.ascii	"Src/main.c\000"
 2278      6D61696E 
 2278      2E6300
 2279 00cb 00       		.space	1
 2280              	.LC2:
 2281 00cc 5461736B 		.ascii	"Task1\000"
 2281      3100
 2282 00d2 0000     		.space	2
 2283              	.LC0:
 2284 00d4 5461736B 		.ascii	"Task0\000"
 2284      3000
 2285              		.section	.bss.setupCounter,"aw",%nobits
 2286              		.align	2
 2287              		.set	.LANCHOR1,. + 0
 2290              	setupCounter:
 2291 0000 00000000 		.space	4
 2292              		.section	.bss.sensor_flag2,"aw",%nobits
 2293              		.align	2
 2294              		.set	.LANCHOR3,. + 0
 2297              	sensor_flag2:
 2298 0000 00000000 		.space	4
 2299              		.section	.bss.globalCounter,"aw",%nobits
 2300              		.align	2
 2301              		.set	.LANCHOR0,. + 0
 2304              	globalCounter:
 2305 0000 00000000 		.space	4
 2306              		.section	.bss.sensor_flag1,"aw",%nobits
 2307              		.align	2
 2308              		.set	.LANCHOR2,. + 0
 2311              	sensor_flag1:
 2312 0000 00000000 		.space	4
 2313              		.text
 2314              	.Letext0:
ARM GAS  /tmp/cc9IUS8A.s 			page 62


 2315              		.file 2 "/home/user/Library/gcc-arm-none-eabi-5_4-2016q3/arm-none-eabi/include/machine/_default_ty
 2316              		.file 3 "/home/user/Library/gcc-arm-none-eabi-5_4-2016q3/arm-none-eabi/include/sys/_stdint.h"
 2317              		.file 4 "Drivers/CMSIS/Include/core_cm3.h"
 2318              		.file 5 "Drivers/CMSIS/Device/ST/STM32F1xx/Include/stm32f103xe.h"
 2319              		.file 6 "Drivers/CMSIS/Device/ST/STM32F1xx/Include/stm32f1xx.h"
 2320              		.file 7 "Drivers/STM32F1xx_HAL_Driver/Inc/stm32f1xx_hal_def.h"
 2321              		.file 8 "Drivers/STM32F1xx_HAL_Driver/Inc/stm32f1xx_hal_rcc.h"
 2322              		.file 9 "Drivers/STM32F1xx_HAL_Driver/Inc/stm32f1xx_hal_rcc_ex.h"
 2323              		.file 10 "Drivers/STM32F1xx_HAL_Driver/Inc/stm32f1xx_hal_gpio.h"
 2324              		.file 11 "Drivers/STM32F1xx_HAL_Driver/Inc/stm32f1xx_hal_dma.h"
 2325              		.file 12 "Drivers/STM32F1xx_HAL_Driver/Inc/stm32f1xx_hal_can.h"
 2326              		.file 13 "Drivers/STM32F1xx_HAL_Driver/Inc/stm32f1xx_hal_can_ex.h"
 2327              		.file 14 "Drivers/STM32F1xx_HAL_Driver/Inc/stm32f1xx_hal_tim.h"
 2328              		.file 15 "Drivers/STM32F1xx_HAL_Driver/Inc/stm32f1xx_hal_tim_ex.h"
 2329              		.file 16 "Drivers/STM32F1xx_HAL_Driver/Inc/stm32f1xx_hal_uart.h"
 2330              		.file 17 "Middlewares/Third_Party/FreeRTOS/Source/include/task.h"
 2331              		.file 18 "Middlewares/Third_Party/FreeRTOS/Source/CMSIS_RTOS/cmsis_os.h"
 2332              		.file 19 "Inc/arm_etm.h"
 2333              		.file 20 "/home/user/Library/gcc-arm-none-eabi-5_4-2016q3/arm-none-eabi/include/stdio.h"
 2334              		.file 21 "Drivers/STM32F1xx_HAL_Driver/Inc/stm32f1xx_hal.h"
 2335              		.file 22 "Drivers/STM32F1xx_HAL_Driver/Inc/stm32f1xx_hal_cortex.h"
ARM GAS  /tmp/cc9IUS8A.s 			page 63

